---
triple:          'arm64-apple-darwin'
binary-path:     '/Users/tgelin01/Projects/rover/src/RoverIos/build/RoverIos.framework/RoverIos'
relocations:
  - { offsetInCU: 0x34, offset: 0x547ED, size: 0x8, addend: 0x0, symName: _RoverIosVersionString, symObjAddr: 0x0, symBinAddr: 0x1063D0, symSize: 0x0 }
  - { offsetInCU: 0x69, offset: 0x54822, size: 0x8, addend: 0x0, symName: _RoverIosVersionNumber, symObjAddr: 0x30, symBinAddr: 0x106400, symSize: 0x0 }
  - { offsetInCU: 0x61, offset: 0x54899, size: 0x8, addend: 0x0, symName: '_$s8RoverIosAAC11viewDidLoadyyFTo', symObjAddr: 0x7C, symBinAddr: 0x1BBC, symSize: 0x70 }
  - { offsetInCU: 0xD6, offset: 0x5490E, size: 0x8, addend: 0x0, symName: '_$s8RoverIosAAC7nibName6bundleABSSSg_So8NSBundleCSgtcfcTo', symObjAddr: 0x1DC, symBinAddr: 0x1D1C, symSize: 0x9C }
  - { offsetInCU: 0x14B, offset: 0x54983, size: 0x8, addend: 0x0, symName: '_$s8RoverIosAAC5coderABSgSo7NSCoderC_tcfcTo', symObjAddr: 0x304, symBinAddr: 0x1E44, symSize: 0x44 }
  - { offsetInCU: 0x1A5, offset: 0x549DD, size: 0x8, addend: 0x0, symName: '_$s8RoverIosAACMa', symObjAddr: 0x5C, symBinAddr: 0x1B9C, symSize: 0x20 }
  - { offsetInCU: 0x2F6, offset: 0x54B2E, size: 0x8, addend: 0x0, symName: '_$s8RoverIosAAC7nibName6bundleABSSSg_So8NSBundleCSgtcfC', symObjAddr: 0xEC, symBinAddr: 0x1C2C, symSize: 0x74 }
  - { offsetInCU: 0x30A, offset: 0x54B42, size: 0x8, addend: 0x0, symName: '_$s8RoverIosAAC7nibName6bundleABSSSg_So8NSBundleCSgtcfc', symObjAddr: 0x160, symBinAddr: 0x1CA0, symSize: 0x7C }
  - { offsetInCU: 0x36F, offset: 0x54BA7, size: 0x8, addend: 0x0, symName: '_$s8RoverIosAAC5coderABSgSo7NSCoderC_tcfC', symObjAddr: 0x278, symBinAddr: 0x1DB8, symSize: 0x40 }
  - { offsetInCU: 0x383, offset: 0x54BBB, size: 0x8, addend: 0x0, symName: '_$s8RoverIosAAC5coderABSgSo7NSCoderC_tcfc', symObjAddr: 0x2B8, symBinAddr: 0x1DF8, symSize: 0x4C }
  - { offsetInCU: 0x3CF, offset: 0x54C07, size: 0x8, addend: 0x0, symName: '_$s8RoverIosAACfD', symObjAddr: 0x348, symBinAddr: 0x1E88, symSize: 0x30 }
  - { offsetInCU: 0x1E, offset: 0x54C48, size: 0x8, addend: 0x0, symName: '__ZN108_$LT$alloc..collections..btree..map..Iter$LT$K$C$V$GT$$u20$as$u20$core..iter..traits..iterator..Iterator$GT$4next17h70d037308a71bab6E', symObjAddr: 0x0, symBinAddr: 0x7DDB0, symSize: 0x130 }
  - { offsetInCU: 0x4F4, offset: 0x5511E, size: 0x8, addend: 0x0, symName: '__ZN5alloc11collections5btree4node208Handle$LT$alloc..collections..btree..node..NodeRef$LT$alloc..collections..btree..node..marker..Mut$C$K$C$V$C$alloc..collections..btree..node..marker..Leaf$GT$$C$alloc..collections..btree..node..marker..KV$GT$5split17h6395c3776400b5c1E', symObjAddr: 0x9634, symBinAddr: 0x861AC, symSize: 0x1AC }
  - { offsetInCU: 0xA2E, offset: 0x55658, size: 0x8, addend: 0x0, symName: '__ZN5alloc11collections5btree4node208Handle$LT$alloc..collections..btree..node..NodeRef$LT$alloc..collections..btree..node..marker..Mut$C$K$C$V$C$alloc..collections..btree..node..marker..Leaf$GT$$C$alloc..collections..btree..node..marker..KV$GT$5split17he1f1102e2295f0ddE', symObjAddr: 0x97E0, symBinAddr: 0x86358, symSize: 0x1B8 }
  - { offsetInCU: 0xF69, offset: 0x55B93, size: 0x8, addend: 0x0, symName: '__ZN5alloc11collections5btree4node212Handle$LT$alloc..collections..btree..node..NodeRef$LT$alloc..collections..btree..node..marker..Mut$C$K$C$V$C$alloc..collections..btree..node..marker..Internal$GT$$C$alloc..collections..btree..node..marker..KV$GT$5split17h9ca9711f89940d29E', symObjAddr: 0x9998, symBinAddr: 0x86510, symSize: 0x280 }
  - { offsetInCU: 0x169F, offset: 0x562C9, size: 0x8, addend: 0x0, symName: '__ZN5alloc11collections5btree4node212Handle$LT$alloc..collections..btree..node..NodeRef$LT$alloc..collections..btree..node..marker..Mut$C$K$C$V$C$alloc..collections..btree..node..marker..Internal$GT$$C$alloc..collections..btree..node..marker..KV$GT$5split17hbcc3c52c8a8cc0f4E', symObjAddr: 0x9C18, symBinAddr: 0x86790, symSize: 0x28C }
  - { offsetInCU: 0x1E0E, offset: 0x56A38, size: 0x8, addend: 0x0, symName: '__ZN5alloc11collections5btree6remove259_$LT$impl$u20$alloc..collections..btree..node..Handle$LT$alloc..collections..btree..node..NodeRef$LT$alloc..collections..btree..node..marker..Mut$C$K$C$V$C$alloc..collections..btree..node..marker..Leaf$GT$$C$alloc..collections..btree..node..marker..KV$GT$$GT$14remove_leaf_kv17h4bb75cbb3f6a606cE', symObjAddr: 0xA5C0, symBinAddr: 0x87138, symSize: 0x5B0 }
  - { offsetInCU: 0x2AED, offset: 0x57717, size: 0x8, addend: 0x0, symName: '__ZN5alloc11collections5btree6remove259_$LT$impl$u20$alloc..collections..btree..node..Handle$LT$alloc..collections..btree..node..NodeRef$LT$alloc..collections..btree..node..marker..Mut$C$K$C$V$C$alloc..collections..btree..node..marker..Leaf$GT$$C$alloc..collections..btree..node..marker..KV$GT$$GT$14remove_leaf_kv17h9410c4ccfa23c327E', symObjAddr: 0xAB70, symBinAddr: 0x876E8, symSize: 0x5B0 }
  - { offsetInCU: 0x4406, offset: 0x59030, size: 0x8, addend: 0x0, symName: '__ZN5alloc11collections5btree4node29BalancingContext$LT$K$C$V$GT$15bulk_steal_left17h0e519cdf91ce1abeE', symObjAddr: 0x9EA4, symBinAddr: 0x86A1C, symSize: 0x258 }
  - { offsetInCU: 0x4AB1, offset: 0x596DB, size: 0x8, addend: 0x0, symName: '__ZN5alloc11collections5btree4node29BalancingContext$LT$K$C$V$GT$16bulk_steal_right17h1160aed2d88f7030E', symObjAddr: 0xA0FC, symBinAddr: 0x86C74, symSize: 0x278 }
  - { offsetInCU: 0x5246, offset: 0x59E70, size: 0x8, addend: 0x0, symName: '__ZN5alloc11collections5btree4node29BalancingContext$LT$K$C$V$GT$8do_merge17h5fee3337335d7915E', symObjAddr: 0xA374, symBinAddr: 0x86EEC, symSize: 0x24C }
  - { offsetInCU: 0x59DC, offset: 0x5A606, size: 0x8, addend: 0x0, symName: '__ZN108_$LT$alloc..collections..btree..map..Iter$LT$K$C$V$GT$$u20$as$u20$core..iter..traits..iterator..Iterator$GT$4next17h70d037308a71bab6E', symObjAddr: 0x0, symBinAddr: 0x7DDB0, symSize: 0x130 }
  - { offsetInCU: 0x5E6A, offset: 0x5AA94, size: 0x8, addend: 0x0, symName: '__ZN5alloc11collections5btree3map25BTreeMap$LT$K$C$V$C$A$GT$6insert17hbc349b463fec6c94E', symObjAddr: 0x7CD4, symBinAddr: 0x8484C, symSize: 0x9A4 }
  - { offsetInCU: 0x7679, offset: 0x5C2A3, size: 0x8, addend: 0x0, symName: '__ZN5alloc11collections5btree3map25BTreeMap$LT$K$C$V$C$A$GT$6insert17hcc54936ed31868e3E', symObjAddr: 0x8678, symBinAddr: 0x851F0, symSize: 0x968 }
  - { offsetInCU: 0x900B, offset: 0x5DC35, size: 0x8, addend: 0x0, symName: '__ZN5alloc11collections5btree3map25IntoIter$LT$K$C$V$C$A$GT$10dying_next17h302093ea5ff985b8E', symObjAddr: 0x8FE0, symBinAddr: 0x85B58, symSize: 0x21C }
  - { offsetInCU: 0x94B4, offset: 0x5E0DE, size: 0x8, addend: 0x0, symName: '__ZN5alloc11collections5btree3map25IntoIter$LT$K$C$V$C$A$GT$10dying_next17h82150752499eed15E', symObjAddr: 0x91FC, symBinAddr: 0x85D74, symSize: 0x21C }
  - { offsetInCU: 0x995D, offset: 0x5E587, size: 0x8, addend: 0x0, symName: '__ZN5alloc11collections5btree3map25IntoIter$LT$K$C$V$C$A$GT$10dying_next17h8942e04ec5765d93E', symObjAddr: 0x9418, symBinAddr: 0x85F90, symSize: 0x21C }
  - { offsetInCU: 0x9E0D, offset: 0x5EA37, size: 0x8, addend: 0x0, symName: '__ZN94_$LT$alloc..collections..btree..map..BTreeMap$LT$K$C$V$C$A$GT$$u20$as$u20$core..fmt..Debug$GT$3fmt17hfa7baa2d38c4ca70E', symObjAddr: 0x13E50, symBinAddr: 0x90668, symSize: 0xB8 }
  - { offsetInCU: 0xA58D, offset: 0x5F1B7, size: 0x8, addend: 0x0, symName: '__ZN5alloc7raw_vec19RawVec$LT$T$C$A$GT$8grow_one17h096191020879ebfdE', symObjAddr: 0xB890, symBinAddr: 0x880A8, symSize: 0xB4 }
  - { offsetInCU: 0xA70D, offset: 0x5F337, size: 0x8, addend: 0x0, symName: '__ZN5alloc7raw_vec19RawVec$LT$T$C$A$GT$8grow_one17h129c392396a4e322E', symObjAddr: 0xB944, symBinAddr: 0x8815C, symSize: 0xA4 }
  - { offsetInCU: 0xA87F, offset: 0x5F4A9, size: 0x8, addend: 0x0, symName: '__ZN5alloc7raw_vec19RawVec$LT$T$C$A$GT$8grow_one17h20e8209c8ce85befE', symObjAddr: 0xB9E8, symBinAddr: 0x88200, symSize: 0xB8 }
  - { offsetInCU: 0xA9F1, offset: 0x5F61B, size: 0x8, addend: 0x0, symName: '__ZN5alloc7raw_vec19RawVec$LT$T$C$A$GT$8grow_one17h27eac63564311c89E', symObjAddr: 0xBAA0, symBinAddr: 0x882B8, symSize: 0xB4 }
  - { offsetInCU: 0xAB63, offset: 0x5F78D, size: 0x8, addend: 0x0, symName: '__ZN5alloc7raw_vec19RawVec$LT$T$C$A$GT$8grow_one17h28c8a934e56e75b6E', symObjAddr: 0xBB54, symBinAddr: 0x8836C, symSize: 0xB8 }
  - { offsetInCU: 0xACB9, offset: 0x5F8E3, size: 0x8, addend: 0x0, symName: '__ZN5alloc7raw_vec19RawVec$LT$T$C$A$GT$8grow_one17h2b9fac7ce462c60cE', symObjAddr: 0xBC0C, symBinAddr: 0x88424, symSize: 0x98 }
  - { offsetInCU: 0xAE14, offset: 0x5FA3E, size: 0x8, addend: 0x0, symName: '__ZN5alloc7raw_vec19RawVec$LT$T$C$A$GT$8grow_one17h431b422990242d8aE', symObjAddr: 0xBCA4, symBinAddr: 0x884BC, symSize: 0xB8 }
  - { offsetInCU: 0xAF86, offset: 0x5FBB0, size: 0x8, addend: 0x0, symName: '__ZN5alloc7raw_vec19RawVec$LT$T$C$A$GT$8grow_one17h6aa56f951fc7d79aE', symObjAddr: 0xBD5C, symBinAddr: 0x88574, symSize: 0xA4 }
  - { offsetInCU: 0xB0F8, offset: 0x5FD22, size: 0x8, addend: 0x0, symName: '__ZN5alloc7raw_vec19RawVec$LT$T$C$A$GT$8grow_one17h70d82c259ce3fc20E', symObjAddr: 0xBE00, symBinAddr: 0x88618, symSize: 0xB8 }
  - { offsetInCU: 0xB278, offset: 0x5FEA2, size: 0x8, addend: 0x0, symName: '__ZN5alloc7raw_vec19RawVec$LT$T$C$A$GT$8grow_one17h746f7ea7f9a69363E', symObjAddr: 0xBEB8, symBinAddr: 0x886D0, symSize: 0xA4 }
  - { offsetInCU: 0xB3EA, offset: 0x60014, size: 0x8, addend: 0x0, symName: '__ZN5alloc7raw_vec19RawVec$LT$T$C$A$GT$8grow_one17h9b47913e5d5af6b2E', symObjAddr: 0xBF5C, symBinAddr: 0x88774, symSize: 0xB4 }
  - { offsetInCU: 0xB55C, offset: 0x60186, size: 0x8, addend: 0x0, symName: '__ZN5alloc7raw_vec19RawVec$LT$T$C$A$GT$8grow_one17ha635153b064f8517E', symObjAddr: 0xC010, symBinAddr: 0x88828, symSize: 0xC4 }
  - { offsetInCU: 0xB6CE, offset: 0x602F8, size: 0x8, addend: 0x0, symName: '__ZN5alloc7raw_vec19RawVec$LT$T$C$A$GT$8grow_one17hce77e9a3c2c3a1cbE', symObjAddr: 0xC0D4, symBinAddr: 0x888EC, symSize: 0xA4 }
  - { offsetInCU: 0xB840, offset: 0x6046A, size: 0x8, addend: 0x0, symName: '__ZN5alloc7raw_vec19RawVec$LT$T$C$A$GT$8grow_one17hebc8150c8d3f0e5dE', symObjAddr: 0xC178, symBinAddr: 0x88990, symSize: 0xA4 }
  - { offsetInCU: 0xC4E5, offset: 0x6110F, size: 0x8, addend: 0x0, symName: __ZN5alloc7raw_vec11finish_grow17he1b7a9e672f42b86E, symObjAddr: 0xB490, symBinAddr: 0x88008, symSize: 0xA0 }
  - { offsetInCU: 0xC57A, offset: 0x611A4, size: 0x8, addend: 0x0, symName: '__ZN5alloc7raw_vec19RawVec$LT$T$C$A$GT$7reserve21do_reserve_and_handle17h3121e4f1aaed5283E', symObjAddr: 0xB530, symBinAddr: 0x102E4C, symSize: 0xB8 }
  - { offsetInCU: 0xC6D0, offset: 0x612FA, size: 0x8, addend: 0x0, symName: '__ZN5alloc7raw_vec19RawVec$LT$T$C$A$GT$7reserve21do_reserve_and_handle17h4f2bf8c314e6758eE', symObjAddr: 0xB5E8, symBinAddr: 0x102F04, symSize: 0xA4 }
  - { offsetInCU: 0xC826, offset: 0x61450, size: 0x8, addend: 0x0, symName: '__ZN5alloc7raw_vec19RawVec$LT$T$C$A$GT$7reserve21do_reserve_and_handle17hae6ecf707545b2a7E', symObjAddr: 0xB68C, symBinAddr: 0x102FA8, symSize: 0x98 }
  - { offsetInCU: 0xC965, offset: 0x6158F, size: 0x8, addend: 0x0, symName: '__ZN5alloc7raw_vec19RawVec$LT$T$C$A$GT$7reserve21do_reserve_and_handle17hd7c5bc0b521856f0E', symObjAddr: 0xB724, symBinAddr: 0x103040, symSize: 0xB8 }
  - { offsetInCU: 0xCABB, offset: 0x616E5, size: 0x8, addend: 0x0, symName: '__ZN5alloc7raw_vec19RawVec$LT$T$C$A$GT$7reserve21do_reserve_and_handle17hfebe2d489e6df3b2E', symObjAddr: 0xB7DC, symBinAddr: 0x1030F8, symSize: 0xB4 }
  - { offsetInCU: 0xDBD2, offset: 0x627FC, size: 0x8, addend: 0x0, symName: '__ZN65_$LT$alloc..vec..Vec$LT$T$C$A$GT$$u20$as$u20$core..fmt..Debug$GT$3fmt17h0619d8ecdbeb8850E', symObjAddr: 0x1308C, symBinAddr: 0x8F8A4, symSize: 0x70 }
  - { offsetInCU: 0xDCBF, offset: 0x628E9, size: 0x8, addend: 0x0, symName: '__ZN65_$LT$alloc..vec..Vec$LT$T$C$A$GT$$u20$as$u20$core..fmt..Debug$GT$3fmt17h0688be868e1768aaE', symObjAddr: 0x130FC, symBinAddr: 0x8F914, symSize: 0x74 }
  - { offsetInCU: 0xE45C, offset: 0x63086, size: 0x8, addend: 0x0, symName: '__ZN64_$LT$alloc..ffi..c_str..NulError$u20$as$u20$core..fmt..Debug$GT$3fmt17h1b8b7df3a5ea5889E', symObjAddr: 0x12FD0, symBinAddr: 0x8F7E8, symSize: 0x4C }
  - { offsetInCU: 0xE604, offset: 0x6322E, size: 0x8, addend: 0x0, symName: '__ZN5alloc4sync16Arc$LT$T$C$A$GT$9drop_slow17h2cae735e09688ad5E', symObjAddr: 0xB120, symBinAddr: 0x87C98, symSize: 0x7C }
  - { offsetInCU: 0xE808, offset: 0x63432, size: 0x8, addend: 0x0, symName: '__ZN5alloc4sync16Arc$LT$T$C$A$GT$9drop_slow17h30e0bc20e0b1eaf7E', symObjAddr: 0xB19C, symBinAddr: 0x87D14, symSize: 0x9C }
  - { offsetInCU: 0xEAB8, offset: 0x636E2, size: 0x8, addend: 0x0, symName: '__ZN5alloc4sync16Arc$LT$T$C$A$GT$9drop_slow17h86c3a143184f4073E', symObjAddr: 0xB238, symBinAddr: 0x87DB0, symSize: 0xC0 }
  - { offsetInCU: 0xEC4F, offset: 0x63879, size: 0x8, addend: 0x0, symName: '__ZN5alloc4sync16Arc$LT$T$C$A$GT$9drop_slow17h9af30308947ffbd0E', symObjAddr: 0xB2F8, symBinAddr: 0x87E70, symSize: 0xC4 }
  - { offsetInCU: 0xEEE3, offset: 0x63B0D, size: 0x8, addend: 0x0, symName: '__ZN5alloc4sync16Arc$LT$T$C$A$GT$9drop_slow17hb080f084ffa5dc2cE', symObjAddr: 0xB3BC, symBinAddr: 0x87F34, symSize: 0x44 }
  - { offsetInCU: 0xEFEE, offset: 0x63C18, size: 0x8, addend: 0x0, symName: '__ZN5alloc4sync16Arc$LT$T$C$A$GT$9drop_slow17hbc079b2a4ba7df2fE', symObjAddr: 0xB400, symBinAddr: 0x87F78, symSize: 0x90 }
  - { offsetInCU: 0xFC53, offset: 0x6487D, size: 0x8, addend: 0x0, symName: '__ZN58_$LT$alloc..string..String$u20$as$u20$core..fmt..Debug$GT$3fmt17hb5ec017f508660dbE', symObjAddr: 0x7AFC, symBinAddr: 0x84674, symSize: 0x1C }
  - { offsetInCU: 0xFDAA, offset: 0x649D4, size: 0x8, addend: 0x0, symName: '__ZN58_$LT$alloc..string..String$u20$as$u20$core..fmt..Write$GT$10write_char17hd12b76611f4521bfE', symObjAddr: 0x7B18, symBinAddr: 0x84690, symSize: 0x144 }
  - { offsetInCU: 0xFFAA, offset: 0x64BD4, size: 0x8, addend: 0x0, symName: '__ZN58_$LT$alloc..string..String$u20$as$u20$core..fmt..Write$GT$9write_str17hd95f97f46128418aE', symObjAddr: 0x7C5C, symBinAddr: 0x847D4, symSize: 0x78 }
  - { offsetInCU: 0x100D8, offset: 0x64D02, size: 0x8, addend: 0x0, symName: '__ZN60_$LT$alloc..string..String$u20$as$u20$core..fmt..Display$GT$3fmt17hcfdb2c6e3373eeecE', symObjAddr: 0x12FB4, symBinAddr: 0x8F7CC, symSize: 0x1C }
  - { offsetInCU: 0x1019C, offset: 0x64DC6, size: 0x8, addend: 0x0, symName: '__ZN66_$LT$alloc..borrow..Cow$LT$B$GT$$u20$as$u20$core..fmt..Display$GT$3fmt17h1d11304379a6ca30E', symObjAddr: 0x13170, symBinAddr: 0x8F988, symSize: 0x1C }
  - { offsetInCU: 0x1173D, offset: 0x66367, size: 0x8, addend: 0x0, symName: '__ZN4core3ptr100drop_in_place$LT$core..option..Option$LT$std..sys..pal..unix..process..process_common..Stdio$GT$$GT$17hf9487f2ee14dc894E', symObjAddr: 0x1760, symBinAddr: 0x7F510, symSize: 0x28 }
  - { offsetInCU: 0x117D7, offset: 0x66401, size: 0x8, addend: 0x0, symName: '__ZN4core3ptr104drop_in_place$LT$alloc..vec..Vec$LT$$LP$usize$C$std..backtrace_rs..symbolize..gimli..Mapping$RP$$GT$$GT$17hc2f5a81f627b9020E', symObjAddr: 0x1788, symBinAddr: 0x7F538, symSize: 0xC4 }
  - { offsetInCU: 0x11977, offset: 0x665A1, size: 0x8, addend: 0x0, symName: '__ZN4core3ptr105drop_in_place$LT$core..result..Result$LT$alloc..ffi..c_str..CString$C$alloc..ffi..c_str..NulError$GT$$GT$17h9b84c567080d7acaE', symObjAddr: 0x184C, symBinAddr: 0x7F5FC, symSize: 0x48 }
  - { offsetInCU: 0x11AB0, offset: 0x666DA, size: 0x8, addend: 0x0, symName: '__ZN4core3ptr107drop_in_place$LT$alloc..vec..Vec$LT$$LP$std..ffi..os_str..OsString$C$std..ffi..os_str..OsString$RP$$GT$$GT$17h9a38afa472754e84E', symObjAddr: 0x1894, symBinAddr: 0x7F644, symSize: 0x94 }
  - { offsetInCU: 0x11D01, offset: 0x6692B, size: 0x8, addend: 0x0, symName: '__ZN4core3ptr107drop_in_place$LT$core..option..Option$LT$std..sys..pal..unix..process..process_common..CStringArray$GT$$GT$17heca9938b82df5ff3E', symObjAddr: 0x1928, symBinAddr: 0x7F6D8, symSize: 0xB0 }
  - { offsetInCU: 0x11EE9, offset: 0x66B13, size: 0x8, addend: 0x0, symName: '__ZN4core3ptr107drop_in_place$LT$std..backtrace..lazy_resolve..$u7b$$u7b$closure$u7d$$u7d$..$u7b$$u7b$closure$u7d$$u7d$$GT$17h8a3bb709eb143279E', symObjAddr: 0x19D8, symBinAddr: 0x7F788, symSize: 0x10 }
  - { offsetInCU: 0x11F58, offset: 0x66B82, size: 0x8, addend: 0x0, symName: '__ZN4core3ptr108drop_in_place$LT$alloc..collections..btree..map..BTreeMap$LT$u64$C$gimli..read..abbrev..Abbreviation$GT$$GT$17h44ef53cb95526960E', symObjAddr: 0x19E8, symBinAddr: 0x7F798, symSize: 0xB0 }
  - { offsetInCU: 0x1210E, offset: 0x66D38, size: 0x8, addend: 0x0, symName: '__ZN4core3ptr112drop_in_place$LT$$LP$std..ffi..os_str..OsString$C$core..option..Option$LT$std..ffi..os_str..OsString$GT$$RP$$GT$17hb0c9a3399d2936f0E', symObjAddr: 0x1A98, symBinAddr: 0x7F848, symSize: 0x58 }
  - { offsetInCU: 0x1226F, offset: 0x66E99, size: 0x8, addend: 0x0, symName: '__ZN4core3ptr118drop_in_place$LT$$LT$std..backtrace..Backtrace$u20$as$u20$core..fmt..Display$GT$..fmt..$u7b$$u7b$closure$u7d$$u7d$$GT$17h016a2d7382968068E', symObjAddr: 0x1AF0, symBinAddr: 0x7F8A0, symSize: 0x40 }
  - { offsetInCU: 0x12380, offset: 0x66FAA, size: 0x8, addend: 0x0, symName: '__ZN4core3ptr123drop_in_place$LT$addr2line..Context$LT$gimli..read..endian_slice..EndianSlice$LT$gimli..endianity..LittleEndian$GT$$GT$$GT$17h9b50fb0a21073bc4E', symObjAddr: 0x1B30, symBinAddr: 0x7F8E0, symSize: 0x120 }
  - { offsetInCU: 0x126BE, offset: 0x672E8, size: 0x8, addend: 0x0, symName: '__ZN4core3ptr123drop_in_place$LT$addr2line..ResUnit$LT$gimli..read..endian_slice..EndianSlice$LT$gimli..endianity..LittleEndian$GT$$GT$$GT$17h7069ba59ef52b345E', symObjAddr: 0x1C50, symBinAddr: 0x7FA00, symSize: 0xE4 }
  - { offsetInCU: 0x128AE, offset: 0x674D8, size: 0x8, addend: 0x0, symName: '__ZN4core3ptr123drop_in_place$LT$addr2line..SupUnit$LT$gimli..read..endian_slice..EndianSlice$LT$gimli..endianity..LittleEndian$GT$$GT$$GT$17h5e2bf70e88ee7aacE', symObjAddr: 0x1D34, symBinAddr: 0x7FAE4, symSize: 0x54 }
  - { offsetInCU: 0x12983, offset: 0x675AD, size: 0x8, addend: 0x0, symName: '__ZN4core3ptr124drop_in_place$LT$alloc..collections..btree..map..BTreeMap$LT$std..ffi..os_str..OsString$C$std..ffi..os_str..OsString$GT$$GT$17h1a24fd67bf0d3a3aE', symObjAddr: 0x1D88, symBinAddr: 0x7FB38, symSize: 0xC4 }
  - { offsetInCU: 0x12B85, offset: 0x677AF, size: 0x8, addend: 0x0, symName: '__ZN4core3ptr124drop_in_place$LT$alloc..collections..btree..map..IntoIter$LT$std..ffi..os_str..OsString$C$std..ffi..os_str..OsString$GT$$GT$17h6e0889284f8cac30E', symObjAddr: 0x1E4C, symBinAddr: 0x7FBFC, symSize: 0x94 }
  - { offsetInCU: 0x12D30, offset: 0x6795A, size: 0x8, addend: 0x0, symName: '__ZN4core3ptr127drop_in_place$LT$std..sync..poison..PoisonError$LT$std..sync..mutex..MutexGuard$LT$std..sync..barrier..BarrierState$GT$$GT$$GT$17hbccd01f962f071e7E', symObjAddr: 0x1EE0, symBinAddr: 0x7FC90, symSize: 0x5C }
  - { offsetInCU: 0x12E89, offset: 0x67AB3, size: 0x8, addend: 0x0, symName: '__ZN4core3ptr130drop_in_place$LT$gimli..read..dwarf..Dwarf$LT$gimli..read..endian_slice..EndianSlice$LT$gimli..endianity..LittleEndian$GT$$GT$$GT$17h37f912a9eec47e06E', symObjAddr: 0x1F3C, symBinAddr: 0x7FCEC, symSize: 0x58 }
  - { offsetInCU: 0x12F25, offset: 0x67B4F, size: 0x8, addend: 0x0, symName: '__ZN4core3ptr131drop_in_place$LT$alloc..boxed..Box$LT$dyn$u20$core..ops..function..FnOnce$LT$$LP$$RP$$GT$$u2b$Output$u20$$u3d$$u20$$LP$$RP$$GT$$GT$17h93e036350b288e85E', symObjAddr: 0x1F94, symBinAddr: 0x7FD44, symSize: 0x70 }
  - { offsetInCU: 0x1301A, offset: 0x67C44, size: 0x8, addend: 0x0, symName: '__ZN4core3ptr137drop_in_place$LT$gimli..read..dwarf..Unit$LT$gimli..read..endian_slice..EndianSlice$LT$gimli..endianity..LittleEndian$GT$$C$usize$GT$$GT$17h3ed184efebf09ee9E', symObjAddr: 0x2004, symBinAddr: 0x7FDB4, symSize: 0x54 }
  - { offsetInCU: 0x130F4, offset: 0x67D1E, size: 0x8, addend: 0x0, symName: '__ZN4core3ptr144drop_in_place$LT$alloc..vec..Vec$LT$core..option..Option$LT$core..option..Option$LT$std..backtrace_rs..symbolize..gimli..Mapping$GT$$GT$$GT$$GT$17hb17d1997ed3c1c28E', symObjAddr: 0x2058, symBinAddr: 0x7FE08, symSize: 0x10C }
  - { offsetInCU: 0x1329E, offset: 0x67EC8, size: 0x8, addend: 0x0, symName: '__ZN4core3ptr146drop_in_place$LT$alloc..vec..Vec$LT$addr2line..ResUnit$LT$gimli..read..endian_slice..EndianSlice$LT$gimli..endianity..LittleEndian$GT$$GT$$GT$$GT$17hff06a9920a36387dE', symObjAddr: 0x2164, symBinAddr: 0x7FF14, symSize: 0xC4 }
  - { offsetInCU: 0x1340A, offset: 0x68034, size: 0x8, addend: 0x0, symName: '__ZN4core3ptr146drop_in_place$LT$alloc..vec..Vec$LT$addr2line..SupUnit$LT$gimli..read..endian_slice..EndianSlice$LT$gimli..endianity..LittleEndian$GT$$GT$$GT$$GT$17hf2ca75c103aee7abE', symObjAddr: 0x2228, symBinAddr: 0x7FFD8, symSize: 0xF4 }
  - { offsetInCU: 0x1361B, offset: 0x68245, size: 0x8, addend: 0x0, symName: '__ZN4core3ptr152drop_in_place$LT$alloc..collections..btree..map..BTreeMap$LT$std..ffi..os_str..OsString$C$core..option..Option$LT$std..ffi..os_str..OsString$GT$$GT$$GT$17h1a1d58bfdf7cf837E', symObjAddr: 0x231C, symBinAddr: 0x800CC, symSize: 0xD0 }
  - { offsetInCU: 0x13836, offset: 0x68460, size: 0x8, addend: 0x0, symName: '__ZN4core3ptr158drop_in_place$LT$alloc..boxed..Box$LT$$u5b$addr2line..ResUnit$LT$gimli..read..endian_slice..EndianSlice$LT$gimli..endianity..LittleEndian$GT$$GT$$u5d$$GT$$GT$17h69c7e40959a040daE', symObjAddr: 0x23EC, symBinAddr: 0x8019C, symSize: 0xB4 }
  - { offsetInCU: 0x13939, offset: 0x68563, size: 0x8, addend: 0x0, symName: '__ZN4core3ptr158drop_in_place$LT$alloc..boxed..Box$LT$$u5b$addr2line..SupUnit$LT$gimli..read..endian_slice..EndianSlice$LT$gimli..endianity..LittleEndian$GT$$GT$$u5d$$GT$$GT$17hb79f5ec37d561b5fE', symObjAddr: 0x24A0, symBinAddr: 0x80250, symSize: 0xE4 }
  - { offsetInCU: 0x13AFD, offset: 0x68727, size: 0x8, addend: 0x0, symName: '__ZN4core3ptr159drop_in_place$LT$alloc..sync..ArcInner$LT$gimli..read..dwarf..Dwarf$LT$gimli..read..endian_slice..EndianSlice$LT$gimli..endianity..LittleEndian$GT$$GT$$GT$$GT$17he19512454fc3d4e3E', symObjAddr: 0x2584, symBinAddr: 0x80334, symSize: 0x58 }
  - { offsetInCU: 0x13C19, offset: 0x68843, size: 0x8, addend: 0x0, symName: '__ZN4core3ptr174drop_in_place$LT$core..result..Result$LT$addr2line..FrameIter$LT$gimli..read..endian_slice..EndianSlice$LT$gimli..endianity..LittleEndian$GT$$GT$$C$gimli..read..Error$GT$$GT$17hd4289ca4c7e3578eE', symObjAddr: 0x25DC, symBinAddr: 0x8038C, symSize: 0x44 }
  - { offsetInCU: 0x13D2D, offset: 0x68957, size: 0x8, addend: 0x0, symName: '__ZN4core3ptr175drop_in_place$LT$std..sync..reentrant_lock..ReentrantLockGuard$LT$core..cell..RefCell$LT$std..io..buffered..linewriter..LineWriter$LT$std..io..stdio..StdoutRaw$GT$$GT$$GT$$GT$17h7b6beb31dd5637fcE', symObjAddr: 0x2620, symBinAddr: 0x803D0, symSize: 0x3C }
  - { offsetInCU: 0x13E5B, offset: 0x68A85, size: 0x8, addend: 0x0, symName: '__ZN4core3ptr181drop_in_place$LT$core..option..Option$LT$gimli..read..line..IncompleteLineProgram$LT$gimli..read..endian_slice..EndianSlice$LT$gimli..endianity..LittleEndian$GT$$C$usize$GT$$GT$$GT$17h2ce1204adbe093baE', symObjAddr: 0x265C, symBinAddr: 0x8040C, symSize: 0x94 }
  - { offsetInCU: 0x14142, offset: 0x68D6C, size: 0x8, addend: 0x0, symName: '__ZN4core3ptr184drop_in_place$LT$core..result..Result$LT$addr2line..function..Functions$LT$gimli..read..endian_slice..EndianSlice$LT$gimli..endianity..LittleEndian$GT$$GT$$C$gimli..read..Error$GT$$GT$17h51708eae38ad27ceE', symObjAddr: 0x26F0, symBinAddr: 0x804A0, symSize: 0xD8 }
  - { offsetInCU: 0x14400, offset: 0x6902A, size: 0x8, addend: 0x0, symName: '__ZN4core3ptr205drop_in_place$LT$$LT$alloc..boxed..Box$LT$dyn$u20$core..error..Error$u2b$core..marker..Send$u2b$core..marker..Sync$GT$$u20$as$u20$core..convert..From$LT$alloc..string..String$GT$$GT$..from..StringError$GT$17h4c4066ca9cc52ce4E', symObjAddr: 0x27C8, symBinAddr: 0x80578, symSize: 0x28 }
  - { offsetInCU: 0x144A4, offset: 0x690CE, size: 0x8, addend: 0x0, symName: '__ZN4core3ptr23drop_in_place$LT$u8$GT$17hf4d0154fe90baac7E', symObjAddr: 0x27F0, symBinAddr: 0x805A0, symSize: 0x10 }
  - { offsetInCU: 0x144BF, offset: 0x690E9, size: 0x8, addend: 0x0, symName: '__ZN4core3ptr24drop_in_place$LT$i32$GT$17hc9c9e80773062657E', symObjAddr: 0x2800, symBinAddr: 0x805B0, symSize: 0x10 }
  - { offsetInCU: 0x144DA, offset: 0x69104, size: 0x8, addend: 0x0, symName: '__ZN4core3ptr250drop_in_place$LT$$LP$gimli..read..UnitOffset$C$addr2line..lazy..LazyCell$LT$core..result..Result$LT$addr2line..function..Function$LT$gimli..read..endian_slice..EndianSlice$LT$gimli..endianity..LittleEndian$GT$$GT$$C$gimli..read..Error$GT$$GT$$RP$$GT$17h07fcc095a74f01fdE', symObjAddr: 0x2810, symBinAddr: 0x805C0, symSize: 0x64 }
  - { offsetInCU: 0x144F2, offset: 0x6911C, size: 0x8, addend: 0x0, symName: '__ZN4core3ptr250drop_in_place$LT$$LP$gimli..read..UnitOffset$C$addr2line..lazy..LazyCell$LT$core..result..Result$LT$addr2line..function..Function$LT$gimli..read..endian_slice..EndianSlice$LT$gimli..endianity..LittleEndian$GT$$GT$$C$gimli..read..Error$GT$$GT$$RP$$GT$17h07fcc095a74f01fdE', symObjAddr: 0x2810, symBinAddr: 0x805C0, symSize: 0x64 }
  - { offsetInCU: 0x14508, offset: 0x69132, size: 0x8, addend: 0x0, symName: '__ZN4core3ptr250drop_in_place$LT$$LP$gimli..read..UnitOffset$C$addr2line..lazy..LazyCell$LT$core..result..Result$LT$addr2line..function..Function$LT$gimli..read..endian_slice..EndianSlice$LT$gimli..endianity..LittleEndian$GT$$GT$$C$gimli..read..Error$GT$$GT$$RP$$GT$17h07fcc095a74f01fdE', symObjAddr: 0x2810, symBinAddr: 0x805C0, symSize: 0x64 }
  - { offsetInCU: 0x1451E, offset: 0x69148, size: 0x8, addend: 0x0, symName: '__ZN4core3ptr250drop_in_place$LT$$LP$gimli..read..UnitOffset$C$addr2line..lazy..LazyCell$LT$core..result..Result$LT$addr2line..function..Function$LT$gimli..read..endian_slice..EndianSlice$LT$gimli..endianity..LittleEndian$GT$$GT$$C$gimli..read..Error$GT$$GT$$RP$$GT$17h07fcc095a74f01fdE', symObjAddr: 0x2810, symBinAddr: 0x805C0, symSize: 0x64 }
  - { offsetInCU: 0x1466E, offset: 0x69298, size: 0x8, addend: 0x0, symName: '__ZN4core3ptr273drop_in_place$LT$alloc..vec..Vec$LT$$LP$gimli..read..UnitOffset$C$addr2line..lazy..LazyCell$LT$core..result..Result$LT$addr2line..function..Function$LT$gimli..read..endian_slice..EndianSlice$LT$gimli..endianity..LittleEndian$GT$$GT$$C$gimli..read..Error$GT$$GT$$RP$$GT$$GT$17h414383cb9e67211eE', symObjAddr: 0x2874, symBinAddr: 0x80624, symSize: 0xAC }
  - { offsetInCU: 0x148A1, offset: 0x694CB, size: 0x8, addend: 0x0, symName: '__ZN4core3ptr275drop_in_place$LT$gimli..read..line..LineRows$LT$gimli..read..endian_slice..EndianSlice$LT$gimli..endianity..LittleEndian$GT$$C$gimli..read..line..IncompleteLineProgram$LT$gimli..read..endian_slice..EndianSlice$LT$gimli..endianity..LittleEndian$GT$$C$usize$GT$$C$usize$GT$$GT$17h4e59d1251060d819E', symObjAddr: 0x2920, symBinAddr: 0x806D0, symSize: 0x88 }
  - { offsetInCU: 0x14AEE, offset: 0x69718, size: 0x8, addend: 0x0, symName: '__ZN4core3ptr280drop_in_place$LT$$LT$alloc..collections..btree..map..IntoIter$LT$K$C$V$C$A$GT$$u20$as$u20$core..ops..drop..Drop$GT$..drop..DropGuard$LT$u64$C$core..result..Result$LT$alloc..sync..Arc$LT$gimli..read..abbrev..Abbreviations$GT$$C$gimli..read..Error$GT$$C$alloc..alloc..Global$GT$$GT$17h44527dc88aadfaa3E', symObjAddr: 0x29A8, symBinAddr: 0x80758, symSize: 0x84 }
  - { offsetInCU: 0x14C46, offset: 0x69870, size: 0x8, addend: 0x0, symName: '__ZN4core3ptr285drop_in_place$LT$alloc..boxed..Box$LT$$u5b$$LP$gimli..read..UnitOffset$C$addr2line..lazy..LazyCell$LT$core..result..Result$LT$addr2line..function..Function$LT$gimli..read..endian_slice..EndianSlice$LT$gimli..endianity..LittleEndian$GT$$GT$$C$gimli..read..Error$GT$$GT$$RP$$u5d$$GT$$GT$17hca1b5f3f5c2da062E', symObjAddr: 0x2A2C, symBinAddr: 0x807DC, symSize: 0x9C }
  - { offsetInCU: 0x14C5E, offset: 0x69888, size: 0x8, addend: 0x0, symName: '__ZN4core3ptr285drop_in_place$LT$alloc..boxed..Box$LT$$u5b$$LP$gimli..read..UnitOffset$C$addr2line..lazy..LazyCell$LT$core..result..Result$LT$addr2line..function..Function$LT$gimli..read..endian_slice..EndianSlice$LT$gimli..endianity..LittleEndian$GT$$GT$$C$gimli..read..Error$GT$$GT$$RP$$u5d$$GT$$GT$17hca1b5f3f5c2da062E', symObjAddr: 0x2A2C, symBinAddr: 0x807DC, symSize: 0x9C }
  - { offsetInCU: 0x14E4A, offset: 0x69A74, size: 0x8, addend: 0x0, symName: '__ZN4core3ptr29drop_in_place$LT$$LP$$RP$$GT$17h7bf0683b088e7f42E', symObjAddr: 0x2AC8, symBinAddr: 0x80878, symSize: 0x10 }
  - { offsetInCU: 0x14E8F, offset: 0x69AB9, size: 0x8, addend: 0x0, symName: '__ZN4core3ptr37drop_in_place$LT$std..env..VarsOs$GT$17h37f50c06f98d6587E', symObjAddr: 0x2AD8, symBinAddr: 0x80888, symSize: 0xAC }
  - { offsetInCU: 0x15170, offset: 0x69D9A, size: 0x8, addend: 0x0, symName: '__ZN4core3ptr383drop_in_place$LT$core..result..Result$LT$core..option..Option$LT$alloc..boxed..Box$LT$$LP$alloc..sync..Arc$LT$gimli..read..dwarf..Dwarf$LT$gimli..read..endian_slice..EndianSlice$LT$gimli..endianity..LittleEndian$GT$$GT$$GT$$C$gimli..read..dwarf..Unit$LT$gimli..read..endian_slice..EndianSlice$LT$gimli..endianity..LittleEndian$GT$$C$usize$GT$$RP$$GT$$GT$$C$gimli..read..Error$GT$$GT$17h36b7fcf49e5a464fE', symObjAddr: 0x2B84, symBinAddr: 0x80934, symSize: 0xD4 }
  - { offsetInCU: 0x15372, offset: 0x69F9C, size: 0x8, addend: 0x0, symName: '__ZN4core3ptr38drop_in_place$LT$std..fs..FileType$GT$17h64e03d740ebcc5f9E', symObjAddr: 0x2C58, symBinAddr: 0x80A08, symSize: 0x10 }
  - { offsetInCU: 0x1538D, offset: 0x69FB7, size: 0x8, addend: 0x0, symName: '__ZN4core3ptr39drop_in_place$LT$std..path..PathBuf$GT$17he4ba0e95d0e4adc6E', symObjAddr: 0x2C68, symBinAddr: 0x80A18, symSize: 0x28 }
  - { offsetInCU: 0x1549A, offset: 0x6A0C4, size: 0x8, addend: 0x0, symName: '__ZN4core3ptr40drop_in_place$LT$std..process..Child$GT$17h55088c0c52e5c7a0E', symObjAddr: 0x2C90, symBinAddr: 0x80A40, symSize: 0x54 }
  - { offsetInCU: 0x15666, offset: 0x6A290, size: 0x8, addend: 0x0, symName: '__ZN4core3ptr40drop_in_place$LT$std..thread..Thread$GT$17h74b7bd83f6b97837E', symObjAddr: 0x2CE4, symBinAddr: 0x80A94, symSize: 0x30 }
  - { offsetInCU: 0x1573D, offset: 0x6A367, size: 0x8, addend: 0x0, symName: '__ZN4core3ptr41drop_in_place$LT$std..panicking..Hook$GT$17hc2466780257d0cfeE', symObjAddr: 0x2D14, symBinAddr: 0x80AC4, symSize: 0x74 }
  - { offsetInCU: 0x15841, offset: 0x6A46B, size: 0x8, addend: 0x0, symName: '__ZN4core3ptr42drop_in_place$LT$alloc..string..String$GT$17ha224f0c75532fd65E', symObjAddr: 0x2D88, symBinAddr: 0x80B38, symSize: 0x28 }
  - { offsetInCU: 0x15914, offset: 0x6A53E, size: 0x8, addend: 0x0, symName: '__ZN4core3ptr42drop_in_place$LT$std..io..error..Error$GT$17h08ebba3b165601efE', symObjAddr: 0x2DB0, symBinAddr: 0x80B60, symSize: 0xB0 }
  - { offsetInCU: 0x15B5C, offset: 0x6A786, size: 0x8, addend: 0x0, symName: '__ZN4core3ptr44drop_in_place$LT$object..read..ObjectMap$GT$17hdb02495b1f606d9fE', symObjAddr: 0x2E60, symBinAddr: 0x80C10, symSize: 0x58 }
  - { offsetInCU: 0x15CA8, offset: 0x6A8D2, size: 0x8, addend: 0x0, symName: '__ZN4core3ptr44drop_in_place$LT$std..backtrace..Capture$GT$17h4b0af3e771319d6dE', symObjAddr: 0x2EB8, symBinAddr: 0x80C68, symSize: 0x6C }
  - { offsetInCU: 0x15D90, offset: 0x6A9BA, size: 0x8, addend: 0x0, symName: '__ZN4core3ptr44drop_in_place$LT$std..thread..PanicGuard$GT$17h7361a097b3424dbfE', symObjAddr: 0x2F24, symBinAddr: 0x80CD4, symSize: 0x44 }
  - { offsetInCU: 0x15DD8, offset: 0x6AA02, size: 0x8, addend: 0x0, symName: '__ZN4core3ptr44drop_in_place$LT$std..thread..ThreadName$GT$17h81148d1b0424431eE', symObjAddr: 0x2F68, symBinAddr: 0x80D18, symSize: 0x3C }
  - { offsetInCU: 0x15E75, offset: 0x6AA9F, size: 0x8, addend: 0x0, symName: '__ZN4core3ptr46drop_in_place$LT$alloc..vec..Vec$LT$u8$GT$$GT$17hb4210f513e0dd2a1E', symObjAddr: 0x2FA4, symBinAddr: 0x80D54, symSize: 0x28 }
  - { offsetInCU: 0x15EF9, offset: 0x6AB23, size: 0x8, addend: 0x0, symName: '__ZN4core3ptr46drop_in_place$LT$std..io..stdio..StdinLock$GT$17h784160226dad838cE', symObjAddr: 0x2FCC, symBinAddr: 0x80D7C, symSize: 0x68 }
  - { offsetInCU: 0x1603D, offset: 0x6AC67, size: 0x8, addend: 0x0, symName: '__ZN4core3ptr47drop_in_place$LT$alloc..ffi..c_str..CString$GT$17he82a7313fb5f7adfE', symObjAddr: 0x3034, symBinAddr: 0x80DE4, symSize: 0x30 }
  - { offsetInCU: 0x160C3, offset: 0x6ACED, size: 0x8, addend: 0x0, symName: '__ZN4core3ptr47drop_in_place$LT$std..ffi..os_str..OsString$GT$17h6cbf7b3a89f69395E', symObjAddr: 0x3064, symBinAddr: 0x80E14, symSize: 0x28 }
  - { offsetInCU: 0x16157, offset: 0x6AD81, size: 0x8, addend: 0x0, symName: '__ZN4core3ptr48drop_in_place$LT$alloc..ffi..c_str..NulError$GT$17h406ba153cacddafcE', symObjAddr: 0x308C, symBinAddr: 0x80E3C, symSize: 0x28 }
  - { offsetInCU: 0x161E4, offset: 0x6AE0E, size: 0x8, addend: 0x0, symName: '__ZN4core3ptr49drop_in_place$LT$std..sys..pal..unix..os..Env$GT$17h8d6c2eafec81274eE', symObjAddr: 0x30B4, symBinAddr: 0x80E64, symSize: 0xAC }
  - { offsetInCU: 0x16502, offset: 0x6B12C, size: 0x8, addend: 0x0, symName: '__ZN4core3ptr51drop_in_place$LT$std..backtrace..BacktraceFrame$GT$17h89323443da0ab075E', symObjAddr: 0x3160, symBinAddr: 0x80F10, symSize: 0xE4 }
  - { offsetInCU: 0x16790, offset: 0x6B3BA, size: 0x8, addend: 0x0, symName: '__ZN4core3ptr52drop_in_place$LT$std..backtrace..BacktraceSymbol$GT$17h13d6897efaa7ab57E', symObjAddr: 0x3244, symBinAddr: 0x80FF4, symSize: 0x90 }
  - { offsetInCU: 0x1697B, offset: 0x6B5A5, size: 0x8, addend: 0x0, symName: '__ZN4core3ptr52drop_in_place$LT$std..sys..pal..unix..args..Args$GT$17h03f0fc93d00725d0E', symObjAddr: 0x32D4, symBinAddr: 0x81084, symSize: 0x98 }
  - { offsetInCU: 0x16B7D, offset: 0x6B7A7, size: 0x8, addend: 0x0, symName: '__ZN4core3ptr54drop_in_place$LT$std..sys..pal..unix..fd..FileDesc$GT$17h192425e271106260E', symObjAddr: 0x336C, symBinAddr: 0x8111C, symSize: 0x14 }
  - { offsetInCU: 0x16BE9, offset: 0x6B813, size: 0x8, addend: 0x0, symName: '__ZN4core3ptr55drop_in_place$LT$gimli..read..abbrev..Abbreviations$GT$17h591ad05392d78495E', symObjAddr: 0x3380, symBinAddr: 0x81130, symSize: 0x84 }
  - { offsetInCU: 0x16D68, offset: 0x6B992, size: 0x8, addend: 0x0, symName: '__ZN4core3ptr57drop_in_place$LT$std..sys_common..process..CommandEnv$GT$17h893e66e916a5f2f2E', symObjAddr: 0x3404, symBinAddr: 0x811B4, symSize: 0x10 }
  - { offsetInCU: 0x16DAD, offset: 0x6B9D7, size: 0x8, addend: 0x0, symName: '__ZN4core3ptr60drop_in_place$LT$gimli..read..abbrev..AbbreviationsCache$GT$17h15144784681e02ffE', symObjAddr: 0x3414, symBinAddr: 0x811C4, symSize: 0xCC }
  - { offsetInCU: 0x16F52, offset: 0x6BB7C, size: 0x8, addend: 0x0, symName: '__ZN4core3ptr62drop_in_place$LT$std..sys..sync..rwlock..queue..PanicGuard$GT$17h9d3f2d2a4a490efaE', symObjAddr: 0x34E0, symBinAddr: 0x81290, symSize: 0x44 }
  - { offsetInCU: 0x16FB6, offset: 0x6BBE0, size: 0x8, addend: 0x0, symName: '__ZN4core3ptr65drop_in_place$LT$alloc..vec..Vec$LT$alloc..string..String$GT$$GT$17hbfbe2714194f172eE', symObjAddr: 0x3524, symBinAddr: 0x812D4, symSize: 0x80 }
  - { offsetInCU: 0x17114, offset: 0x6BD3E, size: 0x8, addend: 0x0, symName: '__ZN4core3ptr65drop_in_place$LT$std..backtrace_rs..symbolize..gimli..Mapping$GT$17hba1d4861683eb77eE', symObjAddr: 0x35A4, symBinAddr: 0x81354, symSize: 0x70 }
  - { offsetInCU: 0x171D0, offset: 0x6BDFA, size: 0x8, addend: 0x0, symName: '__ZN4core3ptr67drop_in_place$LT$alloc..vec..Vec$LT$addr2line..LineSequence$GT$$GT$17hb1321a795224b20fE', symObjAddr: 0x3614, symBinAddr: 0x813C4, symSize: 0x84 }
  - { offsetInCU: 0x17321, offset: 0x6BF4B, size: 0x8, addend: 0x0, symName: '__ZN4core3ptr70drop_in_place$LT$alloc..vec..Vec$LT$alloc..ffi..c_str..CString$GT$$GT$17h4826e0be8d5e497cE', symObjAddr: 0x3698, symBinAddr: 0x81448, symSize: 0x80 }
  - { offsetInCU: 0x1745C, offset: 0x6C086, size: 0x8, addend: 0x0, symName: '__ZN4core3ptr70drop_in_place$LT$alloc..vec..Vec$LT$std..ffi..os_str..OsString$GT$$GT$17h7e0b3be9d75dd2d8E', symObjAddr: 0x3718, symBinAddr: 0x814C8, symSize: 0x80 }
  - { offsetInCU: 0x17624, offset: 0x6C24E, size: 0x8, addend: 0x0, symName: '__ZN4core3ptr70drop_in_place$LT$std..backtrace_rs..symbolize..gimli..stash..Stash$GT$17h6a77f39350228d1cE', symObjAddr: 0x3798, symBinAddr: 0x81548, symSize: 0xB8 }
  - { offsetInCU: 0x178E3, offset: 0x6C50D, size: 0x8, addend: 0x0, symName: '__ZN4core3ptr71drop_in_place$LT$std..backtrace_rs..symbolize..gimli..macho..Object$GT$17h75d60a148c7ca055E', symObjAddr: 0x3850, symBinAddr: 0x81600, symSize: 0x15C }
  - { offsetInCU: 0x17C17, offset: 0x6C841, size: 0x8, addend: 0x0, symName: '__ZN4core3ptr71drop_in_place$LT$std..panicking..rust_panic_without_hook..RewrapBox$GT$17h4d00aee3ea779033E', symObjAddr: 0x39AC, symBinAddr: 0x8175C, symSize: 0x68 }
  - { offsetInCU: 0x17D1B, offset: 0x6C945, size: 0x8, addend: 0x0, symName: '__ZN4core3ptr71drop_in_place$LT$std..sync..rwlock..RwLockReadGuard$LT$$LP$$RP$$GT$$GT$17hefe30a765ee34846E', symObjAddr: 0x3A14, symBinAddr: 0x817C4, symSize: 0x44 }
  - { offsetInCU: 0x17DD5, offset: 0x6C9FF, size: 0x8, addend: 0x0, symName: '__ZN4core3ptr72drop_in_place$LT$core..option..Option$LT$object..read..ObjectMap$GT$$GT$17h132e68ba7e033459E', symObjAddr: 0x3A58, symBinAddr: 0x81808, symSize: 0x64 }
  - { offsetInCU: 0x17F0E, offset: 0x6CB38, size: 0x8, addend: 0x0, symName: '__ZN4core3ptr73drop_in_place$LT$core..option..Option$LT$std..process..ChildStdin$GT$$GT$17h94842074b8cdc2e5E', symObjAddr: 0x3ABC, symBinAddr: 0x8186C, symSize: 0x24 }
  - { offsetInCU: 0x17F95, offset: 0x6CBBF, size: 0x8, addend: 0x0, symName: '__ZN4core3ptr75drop_in_place$LT$core..option..Option$LT$alloc..ffi..c_str..CString$GT$$GT$17hbf16f6a4fb8c3f57E', symObjAddr: 0x3AE0, symBinAddr: 0x81890, symSize: 0x34 }
  - { offsetInCU: 0x18032, offset: 0x6CC5C, size: 0x8, addend: 0x0, symName: '__ZN4core3ptr77drop_in_place$LT$alloc..boxed..Box$LT$$u5b$alloc..string..String$u5d$$GT$$GT$17hcfa4d9a0fb771fc6E', symObjAddr: 0x3B14, symBinAddr: 0x818C4, symSize: 0x70 }
  - { offsetInCU: 0x1804A, offset: 0x6CC74, size: 0x8, addend: 0x0, symName: '__ZN4core3ptr77drop_in_place$LT$alloc..boxed..Box$LT$$u5b$alloc..string..String$u5d$$GT$$GT$17hcfa4d9a0fb771fc6E', symObjAddr: 0x3B14, symBinAddr: 0x818C4, symSize: 0x70 }
  - { offsetInCU: 0x18153, offset: 0x6CD7D, size: 0x8, addend: 0x0, symName: '__ZN4core3ptr77drop_in_place$LT$std..panicking..begin_panic_handler..FormatStringPayload$GT$17hff0b3aee1ec8d14cE', symObjAddr: 0x3B84, symBinAddr: 0x81934, symSize: 0x34 }
  - { offsetInCU: 0x1820E, offset: 0x6CE38, size: 0x8, addend: 0x0, symName: '__ZN4core3ptr77drop_in_place$LT$std..sys..pal..unix..process..process_common..ChildPipes$GT$17haa1cf95995430993E', symObjAddr: 0x3BB8, symBinAddr: 0x81968, symSize: 0x78 }
  - { offsetInCU: 0x1832A, offset: 0x6CF54, size: 0x8, addend: 0x0, symName: '__ZN4core3ptr77drop_in_place$LT$std..sys..pal..unix..process..process_common..StdioPipes$GT$17hf29576fe7d76d604E', symObjAddr: 0x3C30, symBinAddr: 0x819E0, symSize: 0x54 }
  - { offsetInCU: 0x18495, offset: 0x6D0BF, size: 0x8, addend: 0x0, symName: '__ZN4core3ptr78drop_in_place$LT$core..result..Result$LT$usize$C$std..io..error..Error$GT$$GT$17hf4972ee525a87fcfE', symObjAddr: 0x3C84, symBinAddr: 0x81A34, symSize: 0x24 }
  - { offsetInCU: 0x184A9, offset: 0x6D0D3, size: 0x8, addend: 0x0, symName: '__ZN4core3ptr79drop_in_place$LT$std..sys..pal..unix..process..process_common..CStringArray$GT$17h3962cb84804a6a65E', symObjAddr: 0x3CA8, symBinAddr: 0x81A58, symSize: 0x98 }
  - { offsetInCU: 0x1867A, offset: 0x6D2A4, size: 0x8, addend: 0x0, symName: '__ZN4core3ptr81drop_in_place$LT$core..result..Result$LT$$LP$$RP$$C$std..io..error..Error$GT$$GT$17h5c9d1bb621746ceeE', symObjAddr: 0x3D40, symBinAddr: 0x81AF0, symSize: 0x20 }
  - { offsetInCU: 0x1868E, offset: 0x6D2B8, size: 0x8, addend: 0x0, symName: '__ZN4core3ptr84drop_in_place$LT$$LP$std..ffi..os_str..OsString$C$std..ffi..os_str..OsString$RP$$GT$17h3e23ef414556ab95E', symObjAddr: 0x3D60, symBinAddr: 0x81B10, symSize: 0x4C }
  - { offsetInCU: 0x187DD, offset: 0x6D407, size: 0x8, addend: 0x0, symName: '__ZN4core3ptr84drop_in_place$LT$alloc..sync..ArcInner$LT$gimli..read..abbrev..Abbreviations$GT$$GT$17h6d94e1609ea65a5cE', symObjAddr: 0x3DAC, symBinAddr: 0x81B5C, symSize: 0x84 }
  - { offsetInCU: 0x189A4, offset: 0x6D5CE, size: 0x8, addend: 0x0, symName: '__ZN4core3ptr86drop_in_place$LT$core..result..Result$LT$addr2line..Lines$C$gimli..read..Error$GT$$GT$17h74e1bda336283182E', symObjAddr: 0x3E30, symBinAddr: 0x81BE0, symSize: 0xE4 }
  - { offsetInCU: 0x18C14, offset: 0x6D83E, size: 0x8, addend: 0x0, symName: '__ZN4core3ptr87drop_in_place$LT$alloc..sync..ArcInner$LT$std..sys..pal..unix..fs..InnerReadDir$GT$$GT$17h8c7be2b48480c1a3E', symObjAddr: 0x3F14, symBinAddr: 0x81CC4, symSize: 0x60 }
  - { offsetInCU: 0x18DBD, offset: 0x6D9E7, size: 0x8, addend: 0x0, symName: '__ZN4core3ptr87drop_in_place$LT$core..option..Option$LT$alloc..boxed..Box$LT$$u5b$u32$u5d$$GT$$GT$$GT$17h257aa2788fda26f1E', symObjAddr: 0x3F74, symBinAddr: 0x81D24, symSize: 0x34 }
  - { offsetInCU: 0x18E9F, offset: 0x6DAC9, size: 0x8, addend: 0x0, symName: '__ZN4core3ptr88drop_in_place$LT$alloc..vec..Vec$LT$std..backtrace_rs..symbolize..gimli..Library$GT$$GT$17h3da5884361723bf0E', symObjAddr: 0x3FA8, symBinAddr: 0x81D58, symSize: 0x98 }
  - { offsetInCU: 0x1907E, offset: 0x6DCA8, size: 0x8, addend: 0x0, symName: '__ZN4core3ptr88drop_in_place$LT$std..io..Write..write_fmt..Adapter$LT$alloc..vec..Vec$LT$u8$GT$$GT$$GT$17h3230d87eb9df7bc3E', symObjAddr: 0x4040, symBinAddr: 0x81DF0, symSize: 0x20 }
  - { offsetInCU: 0x190C5, offset: 0x6DCEF, size: 0x8, addend: 0x0, symName: '__ZN4core3ptr90drop_in_place$LT$std..io..buffered..bufwriter..BufWriter$LT$W$GT$..flush_buf..BufGuard$GT$17haa85f53b4e530e74E', symObjAddr: 0x4060, symBinAddr: 0x81E10, symSize: 0x60 }
  - { offsetInCU: 0x19213, offset: 0x6DE3D, size: 0x8, addend: 0x0, symName: '__ZN4core3ptr91drop_in_place$LT$core..result..Result$LT$alloc..string..String$C$std..env..VarError$GT$$GT$17h252bb6828775b199E', symObjAddr: 0x40C0, symBinAddr: 0x81E70, symSize: 0x3C }
  - { offsetInCU: 0x192B0, offset: 0x6DEDA, size: 0x8, addend: 0x0, symName: '__ZN4core3ptr91drop_in_place$LT$core..result..Result$LT$std..path..PathBuf$C$std..io..error..Error$GT$$GT$17h0ef755c342451785E', symObjAddr: 0x40FC, symBinAddr: 0x81EAC, symSize: 0x40 }
  - { offsetInCU: 0x19380, offset: 0x6DFAA, size: 0x8, addend: 0x0, symName: '__ZN4core3ptr92drop_in_place$LT$alloc..boxed..Box$LT$std..sys..sync..mutex..pthread..AllocatedMutex$GT$$GT$17h2877a3993e2a555cE', symObjAddr: 0x413C, symBinAddr: 0x81EEC, symSize: 0x2C }
  - { offsetInCU: 0x19422, offset: 0x6E04C, size: 0x8, addend: 0x0, symName: '__ZN4core3ptr95drop_in_place$LT$core..option..IntoIter$LT$std..backtrace_rs..symbolize..gimli..Library$GT$$GT$17h1bcd88a7cafdffe3E', symObjAddr: 0x4168, symBinAddr: 0x81F18, symSize: 0x5C }
  - { offsetInCU: 0x19441, offset: 0x6E06B, size: 0x8, addend: 0x0, symName: '__ZN4core3ptr95drop_in_place$LT$core..option..IntoIter$LT$std..backtrace_rs..symbolize..gimli..Library$GT$$GT$17h1bcd88a7cafdffe3E', symObjAddr: 0x4168, symBinAddr: 0x81F18, symSize: 0x5C }
  - { offsetInCU: 0x19457, offset: 0x6E081, size: 0x8, addend: 0x0, symName: '__ZN4core3ptr95drop_in_place$LT$core..option..IntoIter$LT$std..backtrace_rs..symbolize..gimli..Library$GT$$GT$17h1bcd88a7cafdffe3E', symObjAddr: 0x4168, symBinAddr: 0x81F18, symSize: 0x5C }
  - { offsetInCU: 0x195A6, offset: 0x6E1D0, size: 0x8, addend: 0x0, symName: '__ZN4core3ptr95drop_in_place$LT$std..io..buffered..linewriter..LineWriter$LT$std..io..stdio..StdoutRaw$GT$$GT$17h066453ea8b061592E', symObjAddr: 0x41C4, symBinAddr: 0x81F74, symSize: 0x84 }
  - { offsetInCU: 0x1B6D2, offset: 0x702FC, size: 0x8, addend: 0x0, symName: '__ZN4core6option19Option$LT$$RF$T$GT$6cloned17h7715ea60e795bd4fE', symObjAddr: 0x7530, symBinAddr: 0x8415C, symSize: 0xC8 }
  - { offsetInCU: 0x1C5AE, offset: 0x711D8, size: 0x8, addend: 0x0, symName: '__ZN66_$LT$core..option..Option$LT$T$GT$$u20$as$u20$core..fmt..Debug$GT$3fmt17h1e915fc99362f3feE', symObjAddr: 0x1318C, symBinAddr: 0x8F9A4, symSize: 0x60 }
  - { offsetInCU: 0x1C5C9, offset: 0x711F3, size: 0x8, addend: 0x0, symName: '__ZN66_$LT$core..option..Option$LT$T$GT$$u20$as$u20$core..fmt..Debug$GT$3fmt17h6a87250658ae0fe7E', symObjAddr: 0x131EC, symBinAddr: 0x8FA04, symSize: 0x60 }
  - { offsetInCU: 0x1C5E4, offset: 0x7120E, size: 0x8, addend: 0x0, symName: '__ZN66_$LT$core..option..Option$LT$T$GT$$u20$as$u20$core..fmt..Debug$GT$3fmt17h703238c78bf9fcaaE', symObjAddr: 0x1324C, symBinAddr: 0x8FA64, symSize: 0x60 }
  - { offsetInCU: 0x1C5FF, offset: 0x71229, size: 0x8, addend: 0x0, symName: '__ZN66_$LT$core..option..Option$LT$T$GT$$u20$as$u20$core..fmt..Debug$GT$3fmt17h95a36a7c0f21a83bE', symObjAddr: 0x132AC, symBinAddr: 0x8FAC4, symSize: 0x5C }
  - { offsetInCU: 0x1C61A, offset: 0x71244, size: 0x8, addend: 0x0, symName: '__ZN66_$LT$core..option..Option$LT$T$GT$$u20$as$u20$core..fmt..Debug$GT$3fmt17h9e40ba644bdea81aE', symObjAddr: 0x13308, symBinAddr: 0x8FB20, symSize: 0x5C }
  - { offsetInCU: 0x1C635, offset: 0x7125F, size: 0x8, addend: 0x0, symName: '__ZN66_$LT$core..option..Option$LT$T$GT$$u20$as$u20$core..fmt..Debug$GT$3fmt17ha92a242f26b8ca9bE', symObjAddr: 0x13364, symBinAddr: 0x8FB7C, symSize: 0x60 }
  - { offsetInCU: 0x1C650, offset: 0x7127A, size: 0x8, addend: 0x0, symName: '__ZN66_$LT$core..option..Option$LT$T$GT$$u20$as$u20$core..fmt..Debug$GT$3fmt17hd32fd5da59744e04E', symObjAddr: 0x133C4, symBinAddr: 0x8FBDC, symSize: 0x60 }
  - { offsetInCU: 0x1C66B, offset: 0x71295, size: 0x8, addend: 0x0, symName: '__ZN66_$LT$core..option..Option$LT$T$GT$$u20$as$u20$core..fmt..Debug$GT$3fmt17he31e3bee12e86969E', symObjAddr: 0x13424, symBinAddr: 0x8FC3C, symSize: 0x60 }
  - { offsetInCU: 0x1C686, offset: 0x712B0, size: 0x8, addend: 0x0, symName: '__ZN66_$LT$core..option..Option$LT$T$GT$$u20$as$u20$core..fmt..Debug$GT$3fmt17hf2d3dbbe9b8adb38E', symObjAddr: 0x13484, symBinAddr: 0x8FC9C, symSize: 0x5C }
  - { offsetInCU: 0x1E223, offset: 0x72E4D, size: 0x8, addend: 0x0, symName: '__ZN4core5slice4sort12choose_pivot28_$u7b$$u7b$closure$u7d$$u7d$17hcf3e2bf5821556f1E', symObjAddr: 0x45E8, symBinAddr: 0x8219C, symSize: 0x170 }
  - { offsetInCU: 0x1E63C, offset: 0x73266, size: 0x8, addend: 0x0, symName: __ZN4core5slice4sort14break_patterns17h006ae01fd5a22d64E, symObjAddr: 0x4758, symBinAddr: 0x101E10, symSize: 0x164 }
  - { offsetInCU: 0x1E6DB, offset: 0x73305, size: 0x8, addend: 0x0, symName: __ZN4core5slice4sort22partial_insertion_sort17h07f1e1389d64f7cfE, symObjAddr: 0x48BC, symBinAddr: 0x101F74, symSize: 0x614 }
  - { offsetInCU: 0x1E7BD, offset: 0x733E7, size: 0x8, addend: 0x0, symName: __ZN4core5slice4sort22partial_insertion_sort17h301eb21d1b596540E, symObjAddr: 0x4ED0, symBinAddr: 0x102588, symSize: 0x520 }
  - { offsetInCU: 0x1E88E, offset: 0x734B8, size: 0x8, addend: 0x0, symName: __ZN4core5slice4sort25insertion_sort_shift_left17h0885a3cf9b753d87E, symObjAddr: 0x53F0, symBinAddr: 0x8230C, symSize: 0xE0 }
  - { offsetInCU: 0x1E9E4, offset: 0x7360E, size: 0x8, addend: 0x0, symName: __ZN4core5slice4sort25insertion_sort_shift_left17h13c28f1b05d41b32E, symObjAddr: 0x54D0, symBinAddr: 0x823EC, symSize: 0xF0 }
  - { offsetInCU: 0x1EB0D, offset: 0x73737, size: 0x8, addend: 0x0, symName: __ZN4core5slice4sort25insertion_sort_shift_left17h57a50525e3078224E, symObjAddr: 0x55C0, symBinAddr: 0x824DC, symSize: 0xE8 }
  - { offsetInCU: 0x1EC8F, offset: 0x738B9, size: 0x8, addend: 0x0, symName: __ZN4core5slice4sort25insertion_sort_shift_left17h6607d48a384160b4E, symObjAddr: 0x56A8, symBinAddr: 0x825C4, symSize: 0xF8 }
  - { offsetInCU: 0x1EE85, offset: 0x73AAF, size: 0x8, addend: 0x0, symName: __ZN4core5slice4sort25insertion_sort_shift_left17h90e0e6517ca0c76bE, symObjAddr: 0x57A0, symBinAddr: 0x826BC, symSize: 0xFC }
  - { offsetInCU: 0x1EFAE, offset: 0x73BD8, size: 0x8, addend: 0x0, symName: __ZN4core5slice4sort25insertion_sort_shift_left17ha04ab56abbe3f5b7E, symObjAddr: 0x589C, symBinAddr: 0x827B8, symSize: 0xF8 }
  - { offsetInCU: 0x1F130, offset: 0x73D5A, size: 0x8, addend: 0x0, symName: __ZN4core5slice4sort25insertion_sort_shift_left17ha36223df50267adbE, symObjAddr: 0x5994, symBinAddr: 0x828B0, symSize: 0x158 }
  - { offsetInCU: 0x1F365, offset: 0x73F8F, size: 0x8, addend: 0x0, symName: __ZN4core5slice4sort25insertion_sort_shift_left17he2fff2c1bf060128E, symObjAddr: 0x5AEC, symBinAddr: 0x82A08, symSize: 0xC4 }
  - { offsetInCU: 0x1F4E7, offset: 0x74111, size: 0x8, addend: 0x0, symName: __ZN4core5slice4sort26insertion_sort_shift_right17h041d3f94c9f82377E, symObjAddr: 0x5BB0, symBinAddr: 0x82ACC, symSize: 0xBC }
  - { offsetInCU: 0x1F65E, offset: 0x74288, size: 0x8, addend: 0x0, symName: __ZN4core5slice4sort26insertion_sort_shift_right17h66d05f2d50f5af9cE, symObjAddr: 0x5C6C, symBinAddr: 0x82B88, symSize: 0x120 }
  - { offsetInCU: 0x1F87B, offset: 0x744A5, size: 0x8, addend: 0x0, symName: __ZN4core5slice4sort7recurse17h8e94c4621ea4c37cE, symObjAddr: 0x5D8C, symBinAddr: 0x82CA8, symSize: 0x98C }
  - { offsetInCU: 0x20536, offset: 0x75160, size: 0x8, addend: 0x0, symName: __ZN4core5slice4sort7recurse17hc97dc6c7813a0894E, symObjAddr: 0x6718, symBinAddr: 0x83634, symSize: 0x9F0 }
  - { offsetInCU: 0x21212, offset: 0x75E3C, size: 0x8, addend: 0x0, symName: '__ZN4core5slice4sort8heapsort28_$u7b$$u7b$closure$u7d$$u7d$17ha685a1b96afb5ba6E', symObjAddr: 0x73F8, symBinAddr: 0x84024, symSize: 0x138 }
  - { offsetInCU: 0x213DA, offset: 0x76004, size: 0x8, addend: 0x0, symName: __ZN4core5slice4sort8heapsort17h6becd5a4768d53d5E, symObjAddr: 0x7108, symBinAddr: 0x102AA8, symSize: 0x224 }
  - { offsetInCU: 0x216AC, offset: 0x762D6, size: 0x8, addend: 0x0, symName: __ZN4core5slice4sort8heapsort17hedcc4640fb36c785E, symObjAddr: 0x732C, symBinAddr: 0x102CCC, symSize: 0xCC }
  - { offsetInCU: 0x21DEC, offset: 0x76A16, size: 0x8, addend: 0x0, symName: '__ZN36_$LT$T$u20$as$u20$core..any..Any$GT$7type_id17h728439342f42a41eE', symObjAddr: 0x130, symBinAddr: 0x7DEE0, symSize: 0x30 }
  - { offsetInCU: 0x21E06, offset: 0x76A30, size: 0x8, addend: 0x0, symName: '__ZN36_$LT$T$u20$as$u20$core..any..Any$GT$7type_id17h93310c2c9b77d02fE', symObjAddr: 0x160, symBinAddr: 0x7DF10, symSize: 0x30 }
  - { offsetInCU: 0x21E20, offset: 0x76A4A, size: 0x8, addend: 0x0, symName: '__ZN36_$LT$T$u20$as$u20$core..any..Any$GT$7type_id17ha7b1e7c1f1c58c7aE', symObjAddr: 0x190, symBinAddr: 0x7DF40, symSize: 0x30 }
  - { offsetInCU: 0x21E3A, offset: 0x76A64, size: 0x8, addend: 0x0, symName: '__ZN36_$LT$T$u20$as$u20$core..any..Any$GT$7type_id17hb0ecc1d83543a2e8E', symObjAddr: 0x1C0, symBinAddr: 0x7DF70, symSize: 0x30 }
  - { offsetInCU: 0x21EC0, offset: 0x76AEA, size: 0x8, addend: 0x0, symName: '__ZN41_$LT$bool$u20$as$u20$core..fmt..Debug$GT$3fmt17h849ebef55d26a336E', symObjAddr: 0x1F0, symBinAddr: 0x7DFA0, symSize: 0x10 }
  - { offsetInCU: 0x21EE2, offset: 0x76B0C, size: 0x8, addend: 0x0, symName: '__ZN42_$LT$$RF$T$u20$as$u20$core..fmt..Debug$GT$3fmt17h016708cc5db0c9a4E', symObjAddr: 0x200, symBinAddr: 0x7DFB0, symSize: 0xC8 }
  - { offsetInCU: 0x21F0C, offset: 0x76B36, size: 0x8, addend: 0x0, symName: '__ZN42_$LT$$RF$T$u20$as$u20$core..fmt..Debug$GT$3fmt17h01dc322b574061b4E', symObjAddr: 0x2C8, symBinAddr: 0x7E078, symSize: 0x64 }
  - { offsetInCU: 0x21F4C, offset: 0x76B76, size: 0x8, addend: 0x0, symName: '__ZN42_$LT$$RF$T$u20$as$u20$core..fmt..Debug$GT$3fmt17h022b66703c611d61E', symObjAddr: 0x32C, symBinAddr: 0x7E0DC, symSize: 0x1C }
  - { offsetInCU: 0x21F7E, offset: 0x76BA8, size: 0x8, addend: 0x0, symName: '__ZN42_$LT$$RF$T$u20$as$u20$core..fmt..Debug$GT$3fmt17h0db6f434969b928dE', symObjAddr: 0x348, symBinAddr: 0x7E0F8, symSize: 0x14 }
  - { offsetInCU: 0x21F99, offset: 0x76BC3, size: 0x8, addend: 0x0, symName: '__ZN42_$LT$$RF$T$u20$as$u20$core..fmt..Debug$GT$3fmt17h196e719ba5701e3aE', symObjAddr: 0x35C, symBinAddr: 0x7E10C, symSize: 0x1C }
  - { offsetInCU: 0x21FC2, offset: 0x76BEC, size: 0x8, addend: 0x0, symName: '__ZN42_$LT$$RF$T$u20$as$u20$core..fmt..Debug$GT$3fmt17h28606d1720774d82E', symObjAddr: 0x378, symBinAddr: 0x7E128, symSize: 0x9C }
  - { offsetInCU: 0x22073, offset: 0x76C9D, size: 0x8, addend: 0x0, symName: '__ZN42_$LT$$RF$T$u20$as$u20$core..fmt..Debug$GT$3fmt17h393b48ad482f458eE', symObjAddr: 0x414, symBinAddr: 0x7E1C4, symSize: 0x44 }
  - { offsetInCU: 0x220A5, offset: 0x76CCF, size: 0x8, addend: 0x0, symName: '__ZN42_$LT$$RF$T$u20$as$u20$core..fmt..Debug$GT$3fmt17h3d5709fa95eff160E', symObjAddr: 0x458, symBinAddr: 0x7E208, symSize: 0x78 }
  - { offsetInCU: 0x2216C, offset: 0x76D96, size: 0x8, addend: 0x0, symName: '__ZN42_$LT$$RF$T$u20$as$u20$core..fmt..Debug$GT$3fmt17h44cc0d0a6543fff1E', symObjAddr: 0x4D0, symBinAddr: 0x7E280, symSize: 0x68 }
  - { offsetInCU: 0x2219E, offset: 0x76DC8, size: 0x8, addend: 0x0, symName: '__ZN42_$LT$$RF$T$u20$as$u20$core..fmt..Debug$GT$3fmt17h7bab0e22d59bbc02E', symObjAddr: 0x538, symBinAddr: 0x7E2E8, symSize: 0x30 }
  - { offsetInCU: 0x221E6, offset: 0x76E10, size: 0x8, addend: 0x0, symName: '__ZN42_$LT$$RF$T$u20$as$u20$core..fmt..Debug$GT$3fmt17h7e924f2a45e83d49E', symObjAddr: 0x568, symBinAddr: 0x7E318, symSize: 0x38 }
  - { offsetInCU: 0x22218, offset: 0x76E42, size: 0x8, addend: 0x0, symName: '__ZN42_$LT$$RF$T$u20$as$u20$core..fmt..Debug$GT$3fmt17h814eaa90970b2f80E', symObjAddr: 0x5A0, symBinAddr: 0x7E350, symSize: 0x2C }
  - { offsetInCU: 0x222A4, offset: 0x76ECE, size: 0x8, addend: 0x0, symName: '__ZN42_$LT$$RF$T$u20$as$u20$core..fmt..Debug$GT$3fmt17h83c7c59dd19f9bb0E', symObjAddr: 0x5CC, symBinAddr: 0x7E37C, symSize: 0x64 }
  - { offsetInCU: 0x222D6, offset: 0x76F00, size: 0x8, addend: 0x0, symName: '__ZN42_$LT$$RF$T$u20$as$u20$core..fmt..Debug$GT$3fmt17h990185914262aa1bE', symObjAddr: 0x630, symBinAddr: 0x7E3E0, symSize: 0x14 }
  - { offsetInCU: 0x222F1, offset: 0x76F1B, size: 0x8, addend: 0x0, symName: '__ZN42_$LT$$RF$T$u20$as$u20$core..fmt..Debug$GT$3fmt17h9968e75a29b703b9E', symObjAddr: 0x644, symBinAddr: 0x7E3F4, symSize: 0x74 }
  - { offsetInCU: 0x223FC, offset: 0x77026, size: 0x8, addend: 0x0, symName: '__ZN42_$LT$$RF$T$u20$as$u20$core..fmt..Debug$GT$3fmt17h9aaa1bf571d61ef2E', symObjAddr: 0x6B8, symBinAddr: 0x7E468, symSize: 0x4C }
  - { offsetInCU: 0x2246F, offset: 0x77099, size: 0x8, addend: 0x0, symName: '__ZN42_$LT$$RF$T$u20$as$u20$core..fmt..Debug$GT$3fmt17h9bdb3ff04e6bb85aE', symObjAddr: 0x704, symBinAddr: 0x7E4B4, symSize: 0x74 }
  - { offsetInCU: 0x224A1, offset: 0x770CB, size: 0x8, addend: 0x0, symName: '__ZN42_$LT$$RF$T$u20$as$u20$core..fmt..Debug$GT$3fmt17h9f6d08a396259de2E', symObjAddr: 0x778, symBinAddr: 0x7E528, symSize: 0x38 }
  - { offsetInCU: 0x224D3, offset: 0x770FD, size: 0x8, addend: 0x0, symName: '__ZN42_$LT$$RF$T$u20$as$u20$core..fmt..Debug$GT$3fmt17ha36622bba5a7c823E', symObjAddr: 0x7B0, symBinAddr: 0x7E560, symSize: 0x38 }
  - { offsetInCU: 0x22513, offset: 0x7713D, size: 0x8, addend: 0x0, symName: '__ZN42_$LT$$RF$T$u20$as$u20$core..fmt..Debug$GT$3fmt17ha4a4cbd4e428138aE', symObjAddr: 0x7E8, symBinAddr: 0x7E598, symSize: 0x2C }
  - { offsetInCU: 0x22589, offset: 0x771B3, size: 0x8, addend: 0x0, symName: '__ZN42_$LT$$RF$T$u20$as$u20$core..fmt..Debug$GT$3fmt17hacdf47d0f1cee699E', symObjAddr: 0x814, symBinAddr: 0x7E5C4, symSize: 0x6C }
  - { offsetInCU: 0x225BB, offset: 0x771E5, size: 0x8, addend: 0x0, symName: '__ZN42_$LT$$RF$T$u20$as$u20$core..fmt..Debug$GT$3fmt17haf9c2c60bbfbed37E', symObjAddr: 0x880, symBinAddr: 0x7E630, symSize: 0x30 }
  - { offsetInCU: 0x22603, offset: 0x7722D, size: 0x8, addend: 0x0, symName: '__ZN42_$LT$$RF$T$u20$as$u20$core..fmt..Debug$GT$3fmt17hb01a9457178d96e4E', symObjAddr: 0x8B0, symBinAddr: 0x7E660, symSize: 0x30 }
  - { offsetInCU: 0x2264B, offset: 0x77275, size: 0x8, addend: 0x0, symName: '__ZN42_$LT$$RF$T$u20$as$u20$core..fmt..Debug$GT$3fmt17hb0dcc0b0e603ed95E', symObjAddr: 0x8E0, symBinAddr: 0x7E690, symSize: 0x58 }
  - { offsetInCU: 0x2267D, offset: 0x772A7, size: 0x8, addend: 0x0, symName: '__ZN42_$LT$$RF$T$u20$as$u20$core..fmt..Debug$GT$3fmt17hb3bb12916a2dda95E', symObjAddr: 0x938, symBinAddr: 0x7E6E8, symSize: 0x70 }
  - { offsetInCU: 0x226AF, offset: 0x772D9, size: 0x8, addend: 0x0, symName: '__ZN42_$LT$$RF$T$u20$as$u20$core..fmt..Debug$GT$3fmt17hb6fde1543f360e98E', symObjAddr: 0x9A8, symBinAddr: 0x7E758, symSize: 0x14 }
  - { offsetInCU: 0x226CA, offset: 0x772F4, size: 0x8, addend: 0x0, symName: '__ZN42_$LT$$RF$T$u20$as$u20$core..fmt..Debug$GT$3fmt17hb7d3c616db01aafcE', symObjAddr: 0x9BC, symBinAddr: 0x7E76C, symSize: 0x1C }
  - { offsetInCU: 0x226FC, offset: 0x77326, size: 0x8, addend: 0x0, symName: '__ZN42_$LT$$RF$T$u20$as$u20$core..fmt..Debug$GT$3fmt17hbbde36b73080f8d6E', symObjAddr: 0x9D8, symBinAddr: 0x7E788, symSize: 0x144 }
  - { offsetInCU: 0x2272E, offset: 0x77358, size: 0x8, addend: 0x0, symName: '__ZN42_$LT$$RF$T$u20$as$u20$core..fmt..Debug$GT$3fmt17hd42a5ac6df120ec4E', symObjAddr: 0xB1C, symBinAddr: 0x7E8CC, symSize: 0x30 }
  - { offsetInCU: 0x22776, offset: 0x773A0, size: 0x8, addend: 0x0, symName: '__ZN42_$LT$$RF$T$u20$as$u20$core..fmt..Debug$GT$3fmt17hd9aea3ccd2172f6fE', symObjAddr: 0xB4C, symBinAddr: 0x7E8FC, symSize: 0x20 }
  - { offsetInCU: 0x227B6, offset: 0x773E0, size: 0x8, addend: 0x0, symName: '__ZN42_$LT$$RF$T$u20$as$u20$core..fmt..Debug$GT$3fmt17he4c7e87925dc082dE', symObjAddr: 0xB6C, symBinAddr: 0x7E91C, symSize: 0x74 }
  - { offsetInCU: 0x2287D, offset: 0x774A7, size: 0x8, addend: 0x0, symName: '__ZN42_$LT$$RF$T$u20$as$u20$core..fmt..Debug$GT$3fmt17hf2de41d7133173abE', symObjAddr: 0xBE0, symBinAddr: 0x7E990, symSize: 0x1C }
  - { offsetInCU: 0x22891, offset: 0x774BB, size: 0x8, addend: 0x0, symName: '__ZN42_$LT$$RF$T$u20$as$u20$core..fmt..Debug$GT$3fmt17hf62b241dc30a9e31E', symObjAddr: 0xBFC, symBinAddr: 0x7E9AC, symSize: 0x64 }
  - { offsetInCU: 0x22A48, offset: 0x77672, size: 0x8, addend: 0x0, symName: '__ZN4core3fmt3num50_$LT$impl$u20$core..fmt..Debug$u20$for$u20$i32$GT$3fmt17hc1df4d32703332acE', symObjAddr: 0xCDC, symBinAddr: 0x7EA8C, symSize: 0x2C }
  - { offsetInCU: 0x22A86, offset: 0x776B0, size: 0x8, addend: 0x0, symName: '__ZN4core3fmt3num50_$LT$impl$u20$core..fmt..Debug$u20$for$u20$u64$GT$3fmt17h9601cd59d7a3722fE', symObjAddr: 0xD60, symBinAddr: 0x7EB10, symSize: 0x2C }
  - { offsetInCU: 0x22AC4, offset: 0x776EE, size: 0x8, addend: 0x0, symName: '__ZN4core3fmt3num50_$LT$impl$u20$core..fmt..Debug$u20$for$u20$u32$GT$3fmt17h231dfccf9f0e4cabE', symObjAddr: 0xD34, symBinAddr: 0x7EAE4, symSize: 0x2C }
  - { offsetInCU: 0x22B02, offset: 0x7772C, size: 0x8, addend: 0x0, symName: '__ZN4core3fmt3num52_$LT$impl$u20$core..fmt..Debug$u20$for$u20$usize$GT$3fmt17hb03d6dd106220962E', symObjAddr: 0xD8C, symBinAddr: 0x7EB3C, symSize: 0x2C }
  - { offsetInCU: 0x22B40, offset: 0x7776A, size: 0x8, addend: 0x0, symName: '__ZN4core3fmt3num49_$LT$impl$u20$core..fmt..Debug$u20$for$u20$u8$GT$3fmt17he27c29d0454743fdE', symObjAddr: 0xCB0, symBinAddr: 0x7EA60, symSize: 0x2C }
  - { offsetInCU: 0x22B71, offset: 0x7779B, size: 0x8, addend: 0x0, symName: '__ZN4core3fmt3num50_$LT$impl$u20$core..fmt..Debug$u20$for$u20$i64$GT$3fmt17hb0ef2137c02226dbE', symObjAddr: 0xD08, symBinAddr: 0x7EAB8, symSize: 0x2C }
  - { offsetInCU: 0x22BB7, offset: 0x777E1, size: 0x8, addend: 0x0, symName: '__ZN50_$LT$$LP$U$C$T$RP$$u20$as$u20$core..fmt..Debug$GT$3fmt17hf34163931089553eE', symObjAddr: 0x76C0, symBinAddr: 0x84238, symSize: 0x74 }
  - { offsetInCU: 0x22BE7, offset: 0x77811, size: 0x8, addend: 0x0, symName: '__ZN45_$LT$$LP$$RP$$u20$as$u20$core..fmt..Debug$GT$3fmt17h448f773e41f272f8E', symObjAddr: 0xC90, symBinAddr: 0x7EA40, symSize: 0x20 }
  - { offsetInCU: 0x22C02, offset: 0x7782C, size: 0x8, addend: 0x0, symName: '__ZN44_$LT$$RF$T$u20$as$u20$core..fmt..Display$GT$3fmt17h8e03e12659f0df67E', symObjAddr: 0xC60, symBinAddr: 0x7EA10, symSize: 0x14 }
  - { offsetInCU: 0x22C1D, offset: 0x77847, size: 0x8, addend: 0x0, symName: '__ZN44_$LT$$RF$T$u20$as$u20$core..fmt..Display$GT$3fmt17hbe266c6cedb6ab24E', symObjAddr: 0xC74, symBinAddr: 0x7EA24, symSize: 0x1C }
  - { offsetInCU: 0x22C3F, offset: 0x77869, size: 0x8, addend: 0x0, symName: __ZN4core3fmt5Write10write_char17h0d0ccdf6c3677f21E, symObjAddr: 0xDB8, symBinAddr: 0x7EB68, symSize: 0x140 }
  - { offsetInCU: 0x22CA9, offset: 0x778D3, size: 0x8, addend: 0x0, symName: __ZN4core3fmt5Write10write_char17h2e6b9e7240bad00eE, symObjAddr: 0xEF8, symBinAddr: 0x7ECA8, symSize: 0xC8 }
  - { offsetInCU: 0x22CFF, offset: 0x77929, size: 0x8, addend: 0x0, symName: __ZN4core3fmt5Write10write_char17h670e493780465c53E, symObjAddr: 0xFC0, symBinAddr: 0x7ED70, symSize: 0xC8 }
  - { offsetInCU: 0x22D55, offset: 0x7797F, size: 0x8, addend: 0x0, symName: __ZN4core3fmt5Write10write_char17had39ded1d943067bE, symObjAddr: 0x1088, symBinAddr: 0x7EE38, symSize: 0x148 }
  - { offsetInCU: 0x2300E, offset: 0x77C38, size: 0x8, addend: 0x0, symName: __ZN4core3fmt5Write10write_char17hd9eedef0086d96b4E, symObjAddr: 0x11D0, symBinAddr: 0x7EF80, symSize: 0x120 }
  - { offsetInCU: 0x231D9, offset: 0x77E03, size: 0x8, addend: 0x0, symName: __ZN4core3fmt5Write9write_fmt17h6a27ad7cc873933aE, symObjAddr: 0x12F0, symBinAddr: 0x7F0A0, symSize: 0x1C }
  - { offsetInCU: 0x23209, offset: 0x77E33, size: 0x8, addend: 0x0, symName: __ZN4core3fmt5Write9write_fmt17h908f4eca603d9629E, symObjAddr: 0x130C, symBinAddr: 0x7F0BC, symSize: 0x1C }
  - { offsetInCU: 0x23239, offset: 0x77E63, size: 0x8, addend: 0x0, symName: __ZN4core3fmt5Write9write_fmt17h98e538f2f84440f7E, symObjAddr: 0x1328, symBinAddr: 0x7F0D8, symSize: 0x1C }
  - { offsetInCU: 0x23269, offset: 0x77E93, size: 0x8, addend: 0x0, symName: __ZN4core3fmt5Write9write_fmt17hafe2688ee98371bcE, symObjAddr: 0x1344, symBinAddr: 0x7F0F4, symSize: 0x1C }
  - { offsetInCU: 0x23299, offset: 0x77EC3, size: 0x8, addend: 0x0, symName: __ZN4core3fmt5Write9write_fmt17hb98da5fc167c9136E, symObjAddr: 0x1360, symBinAddr: 0x7F110, symSize: 0x1C }
  - { offsetInCU: 0x232C9, offset: 0x77EF3, size: 0x8, addend: 0x0, symName: __ZN4core3fmt5Write9write_fmt17he907aef1cdaedd24E, symObjAddr: 0x137C, symBinAddr: 0x7F12C, symSize: 0x1C }
  - { offsetInCU: 0x2373C, offset: 0x78366, size: 0x8, addend: 0x0, symName: '__ZN50_$LT$$BP$mut$u20$T$u20$as$u20$core..fmt..Debug$GT$3fmt17h2809ed98b120c335E', symObjAddr: 0x76AC, symBinAddr: 0x84224, symSize: 0x14 }
  - { offsetInCU: 0x237A1, offset: 0x783CB, size: 0x8, addend: 0x0, symName: '__ZN4core5array69_$LT$impl$u20$core..fmt..Debug$u20$for$u20$$u5b$T$u3b$$u20$N$u5d$$GT$3fmt17h7fe6e4a5e8028bc1E', symObjAddr: 0x4444, symBinAddr: 0x81FF8, symSize: 0xFC }
  - { offsetInCU: 0x23D59, offset: 0x78983, size: 0x8, addend: 0x0, symName: '__ZN55_$LT$$RF$str$u20$as$u20$core..str..pattern..Pattern$GT$15is_contained_in17h537ff6441f8487d3E', symObjAddr: 0x7734, symBinAddr: 0x842AC, symSize: 0x3C8 }
  - { offsetInCU: 0x241C8, offset: 0x78DF2, size: 0x8, addend: 0x0, symName: '__ZN64_$LT$core..str..error..Utf8Error$u20$as$u20$core..fmt..Debug$GT$3fmt17h2e551a8c398da1a1E', symObjAddr: 0x1301C, symBinAddr: 0x8F834, symSize: 0x70 }
  - { offsetInCU: 0x2423B, offset: 0x78E65, size: 0x8, addend: 0x0, symName: '__ZN73_$LT$core..num..nonzero..NonZero$LT$T$GT$$u20$as$u20$core..fmt..Debug$GT$3fmt17haa0c3451f36f1e3aE', symObjAddr: 0x139D0, symBinAddr: 0x901E8, symSize: 0x48 }
  - { offsetInCU: 0x24B50, offset: 0x7977A, size: 0x8, addend: 0x0, symName: '__ZN70_$LT$core..num..error..TryFromIntError$u20$as$u20$core..fmt..Debug$GT$3fmt17hbf7b236235e1ea7cE', symObjAddr: 0x13974, symBinAddr: 0x9018C, symSize: 0x40 }
  - { offsetInCU: 0x24B71, offset: 0x7979B, size: 0x8, addend: 0x0, symName: '__ZN72_$LT$core..num..error..TryFromIntError$u20$as$u20$core..error..Error$GT$11description17heb9ea779cb7ca2f3E', symObjAddr: 0x139B4, symBinAddr: 0x901CC, symSize: 0x1C }
  - { offsetInCU: 0x252DB, offset: 0x79F05, size: 0x8, addend: 0x0, symName: '__ZN4core4cell4once17OnceCell$LT$T$GT$8try_init17h72ad8215df9f56d9E', symObjAddr: 0x4248, symBinAddr: 0x101C14, symSize: 0xB4 }
  - { offsetInCU: 0x25461, offset: 0x7A08B, size: 0x8, addend: 0x0, symName: '__ZN4core4cell4once17OnceCell$LT$T$GT$8try_init17hef4d2a651ebd240eE', symObjAddr: 0x42FC, symBinAddr: 0x101CC8, symSize: 0x148 }
  - { offsetInCU: 0x25E53, offset: 0x7AA7D, size: 0x8, addend: 0x0, symName: __ZN4core3ops8function2Fn4call17h8dd84c298aa83e28E, symObjAddr: 0x1398, symBinAddr: 0x7F148, symSize: 0x14 }
  - { offsetInCU: 0x25E74, offset: 0x7AA9E, size: 0x8, addend: 0x0, symName: __ZN4core3ops8function5FnMut8call_mut17h324abb6b038d794aE, symObjAddr: 0x13AC, symBinAddr: 0x7F15C, symSize: 0x14 }
  - { offsetInCU: 0x25ED6, offset: 0x7AB00, size: 0x8, addend: 0x0, symName: '__ZN4core3ops8function6FnOnce40call_once$u7b$$u7b$vtable.shim$u7d$$u7d$17h1c1bd7828a20671dE', symObjAddr: 0x13C0, symBinAddr: 0x7F170, symSize: 0x18 }
  - { offsetInCU: 0x25F29, offset: 0x7AB53, size: 0x8, addend: 0x0, symName: '__ZN4core3ops8function6FnOnce40call_once$u7b$$u7b$vtable.shim$u7d$$u7d$17h2189bb3a291d1c1dE', symObjAddr: 0x13D8, symBinAddr: 0x7F188, symSize: 0x14 }
  - { offsetInCU: 0x25F66, offset: 0x7AB90, size: 0x8, addend: 0x0, symName: '__ZN4core3ops8function6FnOnce40call_once$u7b$$u7b$vtable.shim$u7d$$u7d$17h28f9f22f3560bf51E', symObjAddr: 0x13EC, symBinAddr: 0x7F19C, symSize: 0x10 }
  - { offsetInCU: 0x25FA3, offset: 0x7ABCD, size: 0x8, addend: 0x0, symName: '__ZN4core3ops8function6FnOnce40call_once$u7b$$u7b$vtable.shim$u7d$$u7d$17h4514296b2b602b3dE', symObjAddr: 0x13FC, symBinAddr: 0x7F1AC, symSize: 0x28 }
  - { offsetInCU: 0x25FE0, offset: 0x7AC0A, size: 0x8, addend: 0x0, symName: '__ZN4core3ops8function6FnOnce40call_once$u7b$$u7b$vtable.shim$u7d$$u7d$17h5964b732b72538cfE', symObjAddr: 0x1424, symBinAddr: 0x7F1D4, symSize: 0x78 }
  - { offsetInCU: 0x2618F, offset: 0x7ADB9, size: 0x8, addend: 0x0, symName: '__ZN4core3ops8function6FnOnce40call_once$u7b$$u7b$vtable.shim$u7d$$u7d$17h67251d6d6f1dddafE', symObjAddr: 0x149C, symBinAddr: 0x7F24C, symSize: 0xB0 }
  - { offsetInCU: 0x262E1, offset: 0x7AF0B, size: 0x8, addend: 0x0, symName: '__ZN4core3ops8function6FnOnce40call_once$u7b$$u7b$vtable.shim$u7d$$u7d$17h7198b5933565bce3E', symObjAddr: 0x154C, symBinAddr: 0x7F2FC, symSize: 0xA4 }
  - { offsetInCU: 0x2641E, offset: 0x7B048, size: 0x8, addend: 0x0, symName: '__ZN4core3ops8function6FnOnce40call_once$u7b$$u7b$vtable.shim$u7d$$u7d$17h76ea832c9018b7ccE', symObjAddr: 0x15F0, symBinAddr: 0x7F3A0, symSize: 0x74 }
  - { offsetInCU: 0x265B0, offset: 0x7B1DA, size: 0x8, addend: 0x0, symName: '__ZN4core3ops8function6FnOnce40call_once$u7b$$u7b$vtable.shim$u7d$$u7d$17h9b8883822484e5e5E', symObjAddr: 0x1664, symBinAddr: 0x7F414, symSize: 0x28 }
  - { offsetInCU: 0x265ED, offset: 0x7B217, size: 0x8, addend: 0x0, symName: '__ZN4core3ops8function6FnOnce40call_once$u7b$$u7b$vtable.shim$u7d$$u7d$17hb29a53816cf21f27E', symObjAddr: 0x168C, symBinAddr: 0x7F43C, symSize: 0x18 }
  - { offsetInCU: 0x26640, offset: 0x7B26A, size: 0x8, addend: 0x0, symName: '__ZN4core3ops8function6FnOnce40call_once$u7b$$u7b$vtable.shim$u7d$$u7d$17hd08012d6d4567ad5E', symObjAddr: 0x16A4, symBinAddr: 0x7F454, symSize: 0x18 }
  - { offsetInCU: 0x2667D, offset: 0x7B2A7, size: 0x8, addend: 0x0, symName: '__ZN4core3ops8function6FnOnce40call_once$u7b$$u7b$vtable.shim$u7d$$u7d$17hd546ee9d2544847cE', symObjAddr: 0x16BC, symBinAddr: 0x7F46C, symSize: 0x10 }
  - { offsetInCU: 0x266BA, offset: 0x7B2E4, size: 0x8, addend: 0x0, symName: '__ZN4core3ops8function6FnOnce40call_once$u7b$$u7b$vtable.shim$u7d$$u7d$17he43c2ebe2dc037edE', symObjAddr: 0x16CC, symBinAddr: 0x7F47C, symSize: 0x28 }
  - { offsetInCU: 0x266F7, offset: 0x7B321, size: 0x8, addend: 0x0, symName: '__ZN4core3ops8function6FnOnce40call_once$u7b$$u7b$vtable.shim$u7d$$u7d$17hf5747d73841b0564E', symObjAddr: 0x16F4, symBinAddr: 0x7F4A4, symSize: 0x60 }
  - { offsetInCU: 0x26803, offset: 0x7B42D, size: 0x8, addend: 0x0, symName: __ZN4core3ops8function6FnOnce9call_once17h46c63ec91ab79d03E, symObjAddr: 0x1754, symBinAddr: 0x7F504, symSize: 0xC }
  - { offsetInCU: 0x29CAA, offset: 0x7E8D4, size: 0x8, addend: 0x0, symName: __ZN4core5error5Error5cause17h664d92ec1712cab1E, symObjAddr: 0x4540, symBinAddr: 0x820F4, symSize: 0x14 }
  - { offsetInCU: 0x29CC4, offset: 0x7E8EE, size: 0x8, addend: 0x0, symName: __ZN4core5error5Error5cause17hbd7d8bf3bac87f4dE, symObjAddr: 0x4554, symBinAddr: 0x82108, symSize: 0x14 }
  - { offsetInCU: 0x29CDE, offset: 0x7E908, size: 0x8, addend: 0x0, symName: __ZN4core5error5Error7provide17h1cbf14f5563b12f8E, symObjAddr: 0x4568, symBinAddr: 0x8211C, symSize: 0x10 }
  - { offsetInCU: 0x29CF8, offset: 0x7E922, size: 0x8, addend: 0x0, symName: __ZN4core5error5Error7provide17hadc77ccd1354a7e7E, symObjAddr: 0x4578, symBinAddr: 0x8212C, symSize: 0x10 }
  - { offsetInCU: 0x29D12, offset: 0x7E93C, size: 0x8, addend: 0x0, symName: __ZN4core5error5Error7type_id17h352f5e252d29e3fbE, symObjAddr: 0x4588, symBinAddr: 0x8213C, symSize: 0x30 }
  - { offsetInCU: 0x29D2C, offset: 0x7E956, size: 0x8, addend: 0x0, symName: __ZN4core5error5Error7type_id17h872d2d37e5120fc7E, symObjAddr: 0x45B8, symBinAddr: 0x8216C, symSize: 0x30 }
  - { offsetInCU: 0x2A99D, offset: 0x7F5C7, size: 0x8, addend: 0x0, symName: __ZN4core9panicking13assert_failed17h193de88dfae5ffe7E, symObjAddr: 0x75F8, symBinAddr: 0x102D98, symSize: 0x30 }
  - { offsetInCU: 0x2A9B8, offset: 0x7F5E2, size: 0x8, addend: 0x0, symName: __ZN4core9panicking13assert_failed17h58553741e670c92cE, symObjAddr: 0x7628, symBinAddr: 0x102DC8, symSize: 0x44 }
  - { offsetInCU: 0x2A9D4, offset: 0x7F5FE, size: 0x8, addend: 0x0, symName: __ZN4core9panicking13assert_failed17hccece5ce7466438cE, symObjAddr: 0x766C, symBinAddr: 0x102E0C, symSize: 0x40 }
  - { offsetInCU: 0x2B1B6, offset: 0x7FDE0, size: 0x8, addend: 0x0, symName: __ZN3std3sys3pal4unix7process14process_common7Command3new17hcefeac74fc314a0fE, symObjAddr: 0x3BB0C, symBinAddr: 0xB754C, symSize: 0x234 }
  - { offsetInCU: 0x2B5B4, offset: 0x801DE, size: 0x8, addend: 0x0, symName: __ZN3std3sys3pal4unix7process14process_common7Command9set_arg_017hcf0a3ec66d372a7dE, symObjAddr: 0x3BD40, symBinAddr: 0xB7780, symSize: 0xCC }
  - { offsetInCU: 0x2B730, offset: 0x8035A, size: 0x8, addend: 0x0, symName: __ZN3std3sys3pal4unix7process14process_common7Command3arg17h736dfb50af367fa1E, symObjAddr: 0x3BE0C, symBinAddr: 0xB784C, symSize: 0xEC }
  - { offsetInCU: 0x2B858, offset: 0x80482, size: 0x8, addend: 0x0, symName: __ZN3std3sys3pal4unix7process14process_common7Command3cwd17hc309376975857dd4E, symObjAddr: 0x3BEF8, symBinAddr: 0xB7938, symSize: 0x60 }
  - { offsetInCU: 0x2B911, offset: 0x8053B, size: 0x8, addend: 0x0, symName: __ZN3std3sys3pal4unix7process14process_common7Command8pre_exec17h9837a39d3d75aa04E, symObjAddr: 0x3BF58, symBinAddr: 0xB7998, symSize: 0x70 }
  - { offsetInCU: 0x2B9AB, offset: 0x805D5, size: 0x8, addend: 0x0, symName: __ZN3std3sys3pal4unix7process14process_common7Command5stdin17h67f03815d831cf2aE, symObjAddr: 0x3BFC8, symBinAddr: 0xB7A08, symSize: 0x44 }
  - { offsetInCU: 0x2BA39, offset: 0x80663, size: 0x8, addend: 0x0, symName: __ZN3std3sys3pal4unix7process14process_common7Command6stdout17h2cee413ca67aaae0E, symObjAddr: 0x3C00C, symBinAddr: 0xB7A4C, symSize: 0x44 }
  - { offsetInCU: 0x2BAC7, offset: 0x806F1, size: 0x8, addend: 0x0, symName: __ZN3std3sys3pal4unix7process14process_common7Command6stderr17hfc1bda750c309f71E, symObjAddr: 0x3C050, symBinAddr: 0xB7A90, symSize: 0x44 }
  - { offsetInCU: 0x2BB55, offset: 0x8077F, size: 0x8, addend: 0x0, symName: __ZN3std3sys3pal4unix7process14process_common7Command11capture_env17ha2ff02e6ddbeb0e4E, symObjAddr: 0x3C094, symBinAddr: 0xB7AD4, symSize: 0xA70 }
  - { offsetInCU: 0x2D4FC, offset: 0x82126, size: 0x8, addend: 0x0, symName: __ZN3std3sys3pal4unix7process14process_common7Command8setup_io17haf447924125a9b5bE, symObjAddr: 0x3CB04, symBinAddr: 0xB8544, symSize: 0x258 }
  - { offsetInCU: 0x2D99B, offset: 0x825C5, size: 0x8, addend: 0x0, symName: '__ZN3std3sys3pal4unix7process13process_inner71_$LT$impl$u20$std..sys..pal..unix..process..process_common..Command$GT$5spawn17h86c7f5a0081422fcE', symObjAddr: 0x3E324, symBinAddr: 0xB9D64, symSize: 0x730 }
  - { offsetInCU: 0x2E85F, offset: 0x83489, size: 0x8, addend: 0x0, symName: '__ZN3std3sys3pal4unix7process13process_inner71_$LT$impl$u20$std..sys..pal..unix..process..process_common..Command$GT$7do_exec17h009681295fd6848bE', symObjAddr: 0x3EA54, symBinAddr: 0xBA494, symSize: 0x410 }
  - { offsetInCU: 0x2F0D6, offset: 0x83D00, size: 0x8, addend: 0x0, symName: '__ZN116_$LT$std..sys..pal..unix..process..process_common..CommandArgs$u20$as$u20$core..iter..traits..iterator..Iterator$GT$4next17he5ba2c728356d9cfE', symObjAddr: 0x3D664, symBinAddr: 0xB90A4, symSize: 0x34 }
  - { offsetInCU: 0x2F0EE, offset: 0x83D18, size: 0x8, addend: 0x0, symName: '__ZN116_$LT$std..sys..pal..unix..process..process_common..CommandArgs$u20$as$u20$core..iter..traits..iterator..Iterator$GT$4next17he5ba2c728356d9cfE', symObjAddr: 0x3D664, symBinAddr: 0xB90A4, symSize: 0x34 }
  - { offsetInCU: 0x2F188, offset: 0x83DB2, size: 0x8, addend: 0x0, symName: '__ZN116_$LT$std..sys..pal..unix..process..process_common..CommandArgs$u20$as$u20$core..iter..traits..iterator..Iterator$GT$9size_hint17h83b95e5d069fe510E', symObjAddr: 0x3D698, symBinAddr: 0xB90D8, symSize: 0x28 }
  - { offsetInCU: 0x2F203, offset: 0x83E2D, size: 0x8, addend: 0x0, symName: '__ZN127_$LT$std..sys..pal..unix..process..process_common..CommandArgs$u20$as$u20$core..iter..traits..exact_size..ExactSizeIterator$GT$3len17h89ef74ba794cb946E', symObjAddr: 0x3D6C0, symBinAddr: 0xB9100, symSize: 0x1C }
  - { offsetInCU: 0x2F25B, offset: 0x83E85, size: 0x8, addend: 0x0, symName: '__ZN127_$LT$std..sys..pal..unix..process..process_common..CommandArgs$u20$as$u20$core..iter..traits..exact_size..ExactSizeIterator$GT$8is_empty17h6c032be3f1032db9E', symObjAddr: 0x3D6DC, symBinAddr: 0xB911C, symSize: 0x1C }
  - { offsetInCU: 0x2F336, offset: 0x83F60, size: 0x8, addend: 0x0, symName: __ZN3std3sys3pal4unix7process14process_common4os2c17h2b7f947eabcaf7e1E, symObjAddr: 0x3CD5C, symBinAddr: 0xB879C, symSize: 0x10C }
  - { offsetInCU: 0x2F57E, offset: 0x841A8, size: 0x8, addend: 0x0, symName: __ZN3std3sys3pal4unix7process14process_common5Stdio14to_child_stdio17hb962229d4636bd28E, symObjAddr: 0x3CE68, symBinAddr: 0xB88A8, symSize: 0x138 }
  - { offsetInCU: 0x2F61B, offset: 0x84245, size: 0x8, addend: 0x0, symName: '__ZN90_$LT$std..sys..pal..unix..process..process_common..Command$u20$as$u20$core..fmt..Debug$GT$3fmt17h9feb47409368c40cE', symObjAddr: 0x3CFA0, symBinAddr: 0xB89E0, symSize: 0x66C }
  - { offsetInCU: 0x2FCB0, offset: 0x848DA, size: 0x8, addend: 0x0, symName: '__ZN91_$LT$std..sys..pal..unix..process..process_common..ExitCode$u20$as$u20$core..fmt..Debug$GT$3fmt17h66d1a7e6421c91e2E', symObjAddr: 0x3D60C, symBinAddr: 0xB904C, symSize: 0x58 }
  - { offsetInCU: 0x2FCD2, offset: 0x848FC, size: 0x8, addend: 0x0, symName: '__ZN94_$LT$std..sys..pal..unix..process..process_common..CommandArgs$u20$as$u20$core..fmt..Debug$GT$3fmt17h3c3d120615a28c13E', symObjAddr: 0x3D6F8, symBinAddr: 0xB9138, symSize: 0x78 }
  - { offsetInCU: 0x2FD9D, offset: 0x849C7, size: 0x8, addend: 0x0, symName: '__ZN92_$LT$std..sys..pal..unix..process..process_inner..ExitStatus$u20$as$u20$core..fmt..Debug$GT$3fmt17hfcacb7736b93ebfeE', symObjAddr: 0x3EF3C, symBinAddr: 0xBA97C, symSize: 0x58 }
  - { offsetInCU: 0x2FDF0, offset: 0x84A1A, size: 0x8, addend: 0x0, symName: __ZN3std3sys3pal4unix7process13process_inner7Process4wait17hbff117e9499a2c52E, symObjAddr: 0x3EE64, symBinAddr: 0xBA8A4, symSize: 0xD8 }
  - { offsetInCU: 0x2FFE5, offset: 0x84C0F, size: 0x8, addend: 0x0, symName: '__ZN94_$LT$std..sys..pal..unix..process..process_inner..ExitStatus$u20$as$u20$core..fmt..Display$GT$3fmt17hae81ed1c01fa3bc1E', symObjAddr: 0x3EF94, symBinAddr: 0xBA9D4, symSize: 0x1C0 }
  - { offsetInCU: 0x30187, offset: 0x84DB1, size: 0x8, addend: 0x0, symName: '__ZN97_$LT$std..sys..pal..unix..process..process_inner..ExitStatusError$u20$as$u20$core..fmt..Debug$GT$3fmt17h6128a16e8487d99bE', symObjAddr: 0x3F154, symBinAddr: 0xBAB94, symSize: 0x58 }
  - { offsetInCU: 0x301BE, offset: 0x84DE8, size: 0x8, addend: 0x0, symName: '__ZN70_$LT$std..sys..pal..unix..fd..FileDesc$u20$as$u20$core..fmt..Debug$GT$3fmt17h91bdb54e1385126aE', symObjAddr: 0x3E2E4, symBinAddr: 0xB9D24, symSize: 0x40 }
  - { offsetInCU: 0x30245, offset: 0x84E6F, size: 0x8, addend: 0x0, symName: __ZN3std3sys3pal4unix2fd8FileDesc4read17h00a42230011c3258E, symObjAddr: 0x36A10, symBinAddr: 0xB2450, symSize: 0x4C }
  - { offsetInCU: 0x30339, offset: 0x84F63, size: 0x8, addend: 0x0, symName: __ZN3std3sys3pal4unix2fd8FileDesc13read_vectored17h8b7008e066118ef7E, symObjAddr: 0x36A5C, symBinAddr: 0xB249C, symSize: 0x4C }
  - { offsetInCU: 0x3042D, offset: 0x85057, size: 0x8, addend: 0x0, symName: __ZN3std3sys3pal4unix2fd8FileDesc11read_to_end17hcd1f8a93cc978031E, symObjAddr: 0x36AA8, symBinAddr: 0xB24E8, symSize: 0x240 }
  - { offsetInCU: 0x3083A, offset: 0x85464, size: 0x8, addend: 0x0, symName: __ZN3std3sys3pal4unix2fd8FileDesc7read_at17ha3e195c581c05b27E, symObjAddr: 0x36CE8, symBinAddr: 0xB2728, symSize: 0x4C }
  - { offsetInCU: 0x3092E, offset: 0x85558, size: 0x8, addend: 0x0, symName: __ZN3std3sys3pal4unix2fd8FileDesc8read_buf17h8a47f7f660c79eefE, symObjAddr: 0x36D34, symBinAddr: 0xB2774, symSize: 0x90 }
  - { offsetInCU: 0x30AE2, offset: 0x8570C, size: 0x8, addend: 0x0, symName: __ZN3std3sys3pal4unix2fd8FileDesc16read_vectored_at17h203aa5a7c3d1f87aE, symObjAddr: 0x36DC4, symBinAddr: 0xB2804, symSize: 0x10C }
  - { offsetInCU: 0x30C9E, offset: 0x858C8, size: 0x8, addend: 0x0, symName: __ZN3std3sys3pal4unix2fd8FileDesc5write17h819ad73f39991639E, symObjAddr: 0x36ED0, symBinAddr: 0xB2910, symSize: 0x4C }
  - { offsetInCU: 0x30D95, offset: 0x859BF, size: 0x8, addend: 0x0, symName: __ZN3std3sys3pal4unix2fd8FileDesc14write_vectored17hc9f7dd89344a6971E, symObjAddr: 0x36F1C, symBinAddr: 0xB295C, symSize: 0x4C }
  - { offsetInCU: 0x30E8C, offset: 0x85AB6, size: 0x8, addend: 0x0, symName: __ZN3std3sys3pal4unix2fd8FileDesc8write_at17hbe016f23c11547ddE, symObjAddr: 0x36F68, symBinAddr: 0xB29A8, symSize: 0x4C }
  - { offsetInCU: 0x30F83, offset: 0x85BAD, size: 0x8, addend: 0x0, symName: __ZN3std3sys3pal4unix2fd8FileDesc17write_vectored_at17h98dd00c580bb31fcE, symObjAddr: 0x36FB4, symBinAddr: 0xB29F4, symSize: 0x10C }
  - { offsetInCU: 0x31140, offset: 0x85D6A, size: 0x8, addend: 0x0, symName: __ZN3std3sys3pal4unix2fd8FileDesc11set_cloexec17h1c29a8a5fb4c5619E, symObjAddr: 0x370C0, symBinAddr: 0xB2B00, symSize: 0x40 }
  - { offsetInCU: 0x311F3, offset: 0x85E1D, size: 0x8, addend: 0x0, symName: __ZN3std3sys3pal4unix2fd8FileDesc15set_nonblocking17h86cb3c2cc338bb0eE, symObjAddr: 0x37100, symBinAddr: 0xB2B40, symSize: 0x88 }
  - { offsetInCU: 0x3143C, offset: 0x86066, size: 0x8, addend: 0x0, symName: '__ZN71_$LT$$RF$std..sys..pal..unix..fd..FileDesc$u20$as$u20$std..io..Read$GT$4read17h965832a1827b91feE', symObjAddr: 0x37188, symBinAddr: 0xB2BC8, symSize: 0x50 }
  - { offsetInCU: 0x31547, offset: 0x86171, size: 0x8, addend: 0x0, symName: '__ZN71_$LT$$RF$std..sys..pal..unix..fd..FileDesc$u20$as$u20$std..io..Read$GT$8read_buf17ha727d1e417efd972E', symObjAddr: 0x371D8, symBinAddr: 0xB2C18, symSize: 0x94 }
  - { offsetInCU: 0x3170A, offset: 0x86334, size: 0x8, addend: 0x0, symName: '__ZN71_$LT$$RF$std..sys..pal..unix..fd..FileDesc$u20$as$u20$std..io..Read$GT$13read_vectored17hb330c47eee67f147E', symObjAddr: 0x3726C, symBinAddr: 0xB2CAC, symSize: 0x50 }
  - { offsetInCU: 0x31854, offset: 0x8647E, size: 0x8, addend: 0x0, symName: '__ZN78_$LT$std..sys..pal..unix..fd..FileDesc$u20$as$u20$std..os..fd..owned..AsFd$GT$5as_fd17h4321ab1959af43b8E', symObjAddr: 0x372BC, symBinAddr: 0xB2CFC, symSize: 0x30 }
  - { offsetInCU: 0x3187A, offset: 0x864A4, size: 0x8, addend: 0x0, symName: '__ZN78_$LT$std..sys..pal..unix..fd..FileDesc$u20$as$u20$std..os..fd..owned..AsFd$GT$5as_fd17h4321ab1959af43b8E', symObjAddr: 0x372BC, symBinAddr: 0xB2CFC, symSize: 0x30 }
  - { offsetInCU: 0x318DB, offset: 0x86505, size: 0x8, addend: 0x0, symName: '__ZN77_$LT$std..sys..pal..unix..fs..FilePermissions$u20$as$u20$core..fmt..Debug$GT$3fmt17h5ba96b86122ea3c4E', symObjAddr: 0x37358, symBinAddr: 0xB2D98, symSize: 0x6C }
  - { offsetInCU: 0x31AA1, offset: 0x866CB, size: 0x8, addend: 0x0, symName: __ZN3std3sys3pal4unix2fs4File6open_c17h575781e198fc1ecaE, symObjAddr: 0x3787C, symBinAddr: 0xB32BC, symSize: 0x190 }
  - { offsetInCU: 0x31B8A, offset: 0x867B4, size: 0x8, addend: 0x0, symName: __ZN3std3sys3pal4unix2fs4File4read17hcc9caa0d6d73ea82E, symObjAddr: 0x37A0C, symBinAddr: 0xB344C, symSize: 0x4C }
  - { offsetInCU: 0x31C95, offset: 0x868BF, size: 0x8, addend: 0x0, symName: __ZN3std3sys3pal4unix2fs4File13read_vectored17h96d75a836067ca14E, symObjAddr: 0x37A58, symBinAddr: 0xB3498, symSize: 0x4C }
  - { offsetInCU: 0x31DA0, offset: 0x869CA, size: 0x8, addend: 0x0, symName: __ZN3std3sys3pal4unix2fs4File8read_buf17he629667d3356bf20E, symObjAddr: 0x37AA4, symBinAddr: 0xB34E4, symSize: 0x90 }
  - { offsetInCU: 0x32035, offset: 0x86C5F, size: 0x8, addend: 0x0, symName: '__ZN66_$LT$std..sys..pal..unix..fs..File$u20$as$u20$core..fmt..Debug$GT$3fmt17h5966ff10a8b6196fE', symObjAddr: 0x37C2C, symBinAddr: 0xB366C, symSize: 0x64 }
  - { offsetInCU: 0x321E5, offset: 0x86E0F, size: 0x8, addend: 0x0, symName: __ZN3std3sys3pal4unix2fs8DirEntry8metadata17h62b440ede4391e52E, symObjAddr: 0x375E8, symBinAddr: 0xB3028, symSize: 0x174 }
  - { offsetInCU: 0x3260F, offset: 0x87239, size: 0x8, addend: 0x0, symName: '__ZN3std3sys3pal4unix2fs4stat28_$u7b$$u7b$closure$u7d$$u7d$17h1f46a613b5f271acE', symObjAddr: 0x38EC0, symBinAddr: 0xB4900, symSize: 0xAC }
  - { offsetInCU: 0x3272E, offset: 0x87358, size: 0x8, addend: 0x0, symName: '__ZN3std3sys3pal4unix2fs10DirBuilder5mkdir28_$u7b$$u7b$closure$u7d$$u7d$17hb84f6c5433922b4cE', symObjAddr: 0x37B34, symBinAddr: 0xB3574, symSize: 0x44 }
  - { offsetInCU: 0x327D8, offset: 0x87402, size: 0x8, addend: 0x0, symName: '__ZN3std3sys3pal4unix2fs5lstat28_$u7b$$u7b$closure$u7d$$u7d$17h640ca1fef2c1d1feE', symObjAddr: 0x39090, symBinAddr: 0xB4AD0, symSize: 0xAC }
  - { offsetInCU: 0x328F8, offset: 0x87522, size: 0x8, addend: 0x0, symName: '__ZN70_$LT$std..sys..pal..unix..fs..FileType$u20$as$u20$core..fmt..Debug$GT$3fmt17h8fa11a845ee05b4aE', symObjAddr: 0x372EC, symBinAddr: 0xB2D2C, symSize: 0x6C }
  - { offsetInCU: 0x3291A, offset: 0x87544, size: 0x8, addend: 0x0, symName: '__ZN69_$LT$std..sys..pal..unix..fs..ReadDir$u20$as$u20$core..fmt..Debug$GT$3fmt17h7247fcf44c1c4217E', symObjAddr: 0x373C4, symBinAddr: 0xB2E04, symSize: 0x2C }
  - { offsetInCU: 0x32A36, offset: 0x87660, size: 0x8, addend: 0x0, symName: '__ZN91_$LT$std..sys..pal..unix..fs..ReadDir$u20$as$u20$core..iter..traits..iterator..Iterator$GT$4next17h0ffec2627bb4b423E', symObjAddr: 0x373F0, symBinAddr: 0xB2E30, symSize: 0x138 }
  - { offsetInCU: 0x32C9E, offset: 0x878C8, size: 0x8, addend: 0x0, symName: '__ZN70_$LT$std..sys..pal..unix..fs..Dir$u20$as$u20$core..ops..drop..Drop$GT$4drop17h0ab3ed355cb54ab1E', symObjAddr: 0x37528, symBinAddr: 0xB2F68, symSize: 0xC0 }
  - { offsetInCU: 0x32D8A, offset: 0x879B4, size: 0x8, addend: 0x0, symName: '__ZN73_$LT$std..sys..pal..unix..fs..OpenOptions$u20$as$u20$core..fmt..Debug$GT$3fmt17h33699141910701e6E', symObjAddr: 0x3775C, symBinAddr: 0xB319C, symSize: 0x120 }
  - { offsetInCU: 0x32DAC, offset: 0x879D6, size: 0x8, addend: 0x0, symName: '__ZN72_$LT$std..sys..pal..unix..fs..DirBuilder$u20$as$u20$core..fmt..Debug$GT$3fmt17he130e846920f0f94E', symObjAddr: 0x37B78, symBinAddr: 0xB35B8, symSize: 0x6C }
  - { offsetInCU: 0x32DCE, offset: 0x879F8, size: 0x8, addend: 0x0, symName: '__ZN77_$LT$std..sys..pal..unix..fs..File$u20$as$u20$std..os..fd..raw..FromRawFd$GT$11from_raw_fd17hdac13ec417f8aa1fE', symObjAddr: 0x37BE4, symBinAddr: 0xB3624, symSize: 0x0 }
  - { offsetInCU: 0x32E0E, offset: 0x87A38, size: 0x8, addend: 0x0, symName: '__ZN66_$LT$std..sys..pal..unix..fs..Mode$u20$as$u20$core..fmt..Debug$GT$3fmt17he26004961bf95f6eE', symObjAddr: 0x37C90, symBinAddr: 0xB36D0, symSize: 0x328 }
  - { offsetInCU: 0x32EB4, offset: 0x87ADE, size: 0x8, addend: 0x0, symName: __ZN3std3sys3pal4unix2fs7readdir17h9bc6a9b8edaf22adE, symObjAddr: 0x37FB8, symBinAddr: 0xB39F8, symSize: 0x19C }
  - { offsetInCU: 0x3317E, offset: 0x87DA8, size: 0x8, addend: 0x0, symName: '__ZN3std3sys3pal4unix2fs6unlink28_$u7b$$u7b$closure$u7d$$u7d$17h5e887446ed12b6a9E', symObjAddr: 0x38214, symBinAddr: 0xB3C54, symSize: 0x38 }
  - { offsetInCU: 0x33205, offset: 0x87E2F, size: 0x8, addend: 0x0, symName: __ZN3std3sys3pal4unix2fs6unlink17he98bfce28980369eE, symObjAddr: 0x38154, symBinAddr: 0xB3B94, symSize: 0xC0 }
  - { offsetInCU: 0x3333D, offset: 0x87F67, size: 0x8, addend: 0x0, symName: '__ZN3std3sys3pal4unix2fs6rename28_$u7b$$u7b$closure$u7d$$u7d$28_$u7b$$u7b$closure$u7d$$u7d$17h5c1fe122ec91521dE', symObjAddr: 0x3842C, symBinAddr: 0xB3E6C, symSize: 0x38 }
  - { offsetInCU: 0x333C4, offset: 0x87FEE, size: 0x8, addend: 0x0, symName: '__ZN3std3sys3pal4unix2fs6rename28_$u7b$$u7b$closure$u7d$$u7d$17hdbc88e3bcff676c1E', symObjAddr: 0x38370, symBinAddr: 0xB3DB0, symSize: 0xBC }
  - { offsetInCU: 0x334E5, offset: 0x8810F, size: 0x8, addend: 0x0, symName: __ZN3std3sys3pal4unix2fs6rename17h9a417407a20ab386E, symObjAddr: 0x3824C, symBinAddr: 0xB3C8C, symSize: 0x124 }
  - { offsetInCU: 0x33687, offset: 0x882B1, size: 0x8, addend: 0x0, symName: '__ZN3std3sys3pal4unix2fs8set_perm28_$u7b$$u7b$closure$u7d$$u7d$17h7cc3d10fba0f008cE', symObjAddr: 0x3856C, symBinAddr: 0xB3FAC, symSize: 0x90 }
  - { offsetInCU: 0x33741, offset: 0x8836B, size: 0x8, addend: 0x0, symName: __ZN3std3sys3pal4unix2fs8set_perm17h62e47c8ac0c3e5c4E, symObjAddr: 0x38464, symBinAddr: 0xB3EA4, symSize: 0x108 }
  - { offsetInCU: 0x3389F, offset: 0x884C9, size: 0x8, addend: 0x0, symName: '__ZN3std3sys3pal4unix2fs5rmdir28_$u7b$$u7b$closure$u7d$$u7d$17he2d35090c809ebd0E', symObjAddr: 0x386BC, symBinAddr: 0xB40FC, symSize: 0x38 }
  - { offsetInCU: 0x33926, offset: 0x88550, size: 0x8, addend: 0x0, symName: __ZN3std3sys3pal4unix2fs5rmdir17h7a1cacb74ef779c9E, symObjAddr: 0x385FC, symBinAddr: 0xB403C, symSize: 0xC0 }
  - { offsetInCU: 0x33A3D, offset: 0x88667, size: 0x8, addend: 0x0, symName: __ZN3std3sys3pal4unix2fs8readlink17hc5c03349f31a8384E, symObjAddr: 0x386F4, symBinAddr: 0xB4134, symSize: 0xA4 }
  - { offsetInCU: 0x33AD3, offset: 0x886FD, size: 0x8, addend: 0x0, symName: '__ZN3std3sys3pal4unix2fs8readlink28_$u7b$$u7b$closure$u7d$$u7d$17h556a8975a44fd11bE', symObjAddr: 0x38798, symBinAddr: 0xB41D8, symSize: 0x1AC }
  - { offsetInCU: 0x33E3E, offset: 0x88A68, size: 0x8, addend: 0x0, symName: '__ZN3std3sys3pal4unix2fs7symlink28_$u7b$$u7b$closure$u7d$$u7d$28_$u7b$$u7b$closure$u7d$$u7d$17h192e0a9fd2df53f8E', symObjAddr: 0x38B24, symBinAddr: 0xB4564, symSize: 0x38 }
  - { offsetInCU: 0x33EC5, offset: 0x88AEF, size: 0x8, addend: 0x0, symName: '__ZN3std3sys3pal4unix2fs7symlink28_$u7b$$u7b$closure$u7d$$u7d$17hdddaceb53ccc607eE', symObjAddr: 0x38A68, symBinAddr: 0xB44A8, symSize: 0xBC }
  - { offsetInCU: 0x33FE6, offset: 0x88C10, size: 0x8, addend: 0x0, symName: __ZN3std3sys3pal4unix2fs7symlink17haf94596f257a6ba1E, symObjAddr: 0x38944, symBinAddr: 0xB4384, symSize: 0x124 }
  - { offsetInCU: 0x34187, offset: 0x88DB1, size: 0x8, addend: 0x0, symName: '__ZN3std3sys3pal4unix2fs4link28_$u7b$$u7b$closure$u7d$$u7d$28_$u7b$$u7b$closure$u7d$$u7d$17h910c3c7a1f9a8ffeE', symObjAddr: 0x38D54, symBinAddr: 0xB4794, symSize: 0x48 }
  - { offsetInCU: 0x3420E, offset: 0x88E38, size: 0x8, addend: 0x0, symName: '__ZN3std3sys3pal4unix2fs4link28_$u7b$$u7b$closure$u7d$$u7d$17hc1a10000175e498dE', symObjAddr: 0x38C8C, symBinAddr: 0xB46CC, symSize: 0xC8 }
  - { offsetInCU: 0x3432F, offset: 0x88F59, size: 0x8, addend: 0x0, symName: __ZN3std3sys3pal4unix2fs4link17h83c65f51d30c36e4E, symObjAddr: 0x38B5C, symBinAddr: 0xB459C, symSize: 0x130 }
  - { offsetInCU: 0x344A8, offset: 0x890D2, size: 0x8, addend: 0x0, symName: __ZN3std3sys3pal4unix2fs4stat17h114025753e3b6302E, symObjAddr: 0x38D9C, symBinAddr: 0xB47DC, symSize: 0x124 }
  - { offsetInCU: 0x345FB, offset: 0x89225, size: 0x8, addend: 0x0, symName: __ZN3std3sys3pal4unix2fs5lstat17h0745985044198babE, symObjAddr: 0x38F6C, symBinAddr: 0xB49AC, symSize: 0x124 }
  - { offsetInCU: 0x3474E, offset: 0x89378, size: 0x8, addend: 0x0, symName: __ZN3std3sys3pal4unix2fs12canonicalize17hed570958c93bcbbdE, symObjAddr: 0x3913C, symBinAddr: 0xB4B7C, symSize: 0x14C }
  - { offsetInCU: 0x349D4, offset: 0x895FE, size: 0x8, addend: 0x0, symName: '__ZN83_$LT$std..sys..pal..unix..fs..copy..FreeOnDrop$u20$as$u20$core..ops..drop..Drop$GT$4drop17h2841780f26a0bfefE', symObjAddr: 0x3973C, symBinAddr: 0xB517C, symSize: 0x14 }
  - { offsetInCU: 0x349F6, offset: 0x89620, size: 0x8, addend: 0x0, symName: '__ZN3std3sys3pal4unix2fs4copy28_$u7b$$u7b$closure$u7d$$u7d$17h6af21135cbb70e43E', symObjAddr: 0x39750, symBinAddr: 0xB5190, symSize: 0xA8 }
  - { offsetInCU: 0x34B49, offset: 0x89773, size: 0x8, addend: 0x0, symName: __ZN3std3sys3pal4unix2fs4copy17h37a5c5b85383eec8E, symObjAddr: 0x39288, symBinAddr: 0xB4CC8, symSize: 0x4B4 }
  - { offsetInCU: 0x355AD, offset: 0x8A1D7, size: 0x8, addend: 0x0, symName: '__ZN3std3sys3pal4unix2fs5chown28_$u7b$$u7b$closure$u7d$$u7d$17h46f1d397351fc39aE', symObjAddr: 0x398C0, symBinAddr: 0xB5300, symSize: 0x48 }
  - { offsetInCU: 0x35634, offset: 0x8A25E, size: 0x8, addend: 0x0, symName: __ZN3std3sys3pal4unix2fs5chown17hb108d57be580df76E, symObjAddr: 0x397F8, symBinAddr: 0xB5238, symSize: 0xC8 }
  - { offsetInCU: 0x3575B, offset: 0x8A385, size: 0x8, addend: 0x0, symName: __ZN3std3sys3pal4unix2fs6fchown17h21b861982ae60ae8E, symObjAddr: 0x39908, symBinAddr: 0xB5348, symSize: 0x34 }
  - { offsetInCU: 0x357FC, offset: 0x8A426, size: 0x8, addend: 0x0, symName: '__ZN3std3sys3pal4unix2fs6lchown28_$u7b$$u7b$closure$u7d$$u7d$17hf43966e0c1ad7ce0E', symObjAddr: 0x39A04, symBinAddr: 0xB5444, symSize: 0x48 }
  - { offsetInCU: 0x35883, offset: 0x8A4AD, size: 0x8, addend: 0x0, symName: __ZN3std3sys3pal4unix2fs6lchown17hfd7fa1750cb99c25E, symObjAddr: 0x3993C, symBinAddr: 0xB537C, symSize: 0xC8 }
  - { offsetInCU: 0x359BE, offset: 0x8A5E8, size: 0x8, addend: 0x0, symName: '__ZN3std3sys3pal4unix2fs6chroot28_$u7b$$u7b$closure$u7d$$u7d$17h17e3f55764437a7aE', symObjAddr: 0x39B0C, symBinAddr: 0xB554C, symSize: 0x38 }
  - { offsetInCU: 0x35A45, offset: 0x8A66F, size: 0x8, addend: 0x0, symName: __ZN3std3sys3pal4unix2fs6chroot17h2131a0e63efe53c7E, symObjAddr: 0x39A4C, symBinAddr: 0xB548C, symSize: 0xC0 }
  - { offsetInCU: 0x35BA1, offset: 0x8A7CB, size: 0x8, addend: 0x0, symName: __ZN3std3sys3pal4unix2fs15remove_dir_impl24remove_dir_all_recursive17ha28c55aeb0c8f075E, symObjAddr: 0x39B44, symBinAddr: 0xB5584, symSize: 0x37C }
  - { offsetInCU: 0x36382, offset: 0x8AFAC, size: 0x8, addend: 0x0, symName: '__ZN3std3sys3pal4unix2fs15remove_dir_impl21remove_dir_all_modern28_$u7b$$u7b$closure$u7d$$u7d$17he223a375f2ddb38aE', symObjAddr: 0x39EC0, symBinAddr: 0xB5900, symSize: 0x18 }
  - { offsetInCU: 0x363B3, offset: 0x8AFDD, size: 0x8, addend: 0x0, symName: __ZN3std3sys3pal4unix2fs15remove_dir_impl14remove_dir_all17h8d2c8a059e35f8deE, symObjAddr: 0x39ED8, symBinAddr: 0xB5918, symSize: 0x228 }
  - { offsetInCU: 0x366FA, offset: 0x8B324, size: 0x8, addend: 0x0, symName: '__ZN93_$LT$std..sys..pal..unix..thread_parking..darwin..Parker$u20$as$u20$core..ops..drop..Drop$GT$4drop17h95f9ba286c4864e3E', symObjAddr: 0x3F1DC, symBinAddr: 0xBAC1C, symSize: 0x14 }
  - { offsetInCU: 0x36749, offset: 0x8B373, size: 0x8, addend: 0x0, symName: __ZN3std3sys3pal4unix14thread_parking6darwin6Parker6unpark17hc79e26f7a6a5433eE, symObjAddr: 0x3F1AC, symBinAddr: 0xBABEC, symSize: 0x30 }
  - { offsetInCU: 0x36859, offset: 0x8B483, size: 0x8, addend: 0x0, symName: '__ZN87_$LT$std..sys..pal..unix..os..Env$u20$as$u20$core..iter..traits..iterator..Iterator$GT$4next17h92a39d6638ba835cE', symObjAddr: 0x3AA40, symBinAddr: 0xB6480, symSize: 0x48 }
  - { offsetInCU: 0x368D3, offset: 0x8B4FD, size: 0x8, addend: 0x0, symName: '__ZN87_$LT$std..sys..pal..unix..os..Env$u20$as$u20$core..iter..traits..iterator..Iterator$GT$9size_hint17h5cd8ea7febfa2900E', symObjAddr: 0x3AA88, symBinAddr: 0xB64C8, symSize: 0x38 }
  - { offsetInCU: 0x36971, offset: 0x8B59B, size: 0x8, addend: 0x0, symName: '__ZN3std3sys3pal4unix2os6setenv28_$u7b$$u7b$closure$u7d$$u7d$17hd034fe500eee8f2cE', symObjAddr: 0x3B3B0, symBinAddr: 0xB6DF0, symSize: 0x9C }
  - { offsetInCU: 0x369F2, offset: 0x8B61C, size: 0x8, addend: 0x0, symName: '__ZN3std3sys3pal4unix2os6setenv28_$u7b$$u7b$closure$u7d$$u7d$28_$u7b$$u7b$closure$u7d$$u7d$17h063d1c97c2516f05E', symObjAddr: 0x3B44C, symBinAddr: 0xB6E8C, symSize: 0x144 }
  - { offsetInCU: 0x36DE2, offset: 0x8BA0C, size: 0x8, addend: 0x0, symName: '__ZN94_$LT$std..sys..pal..unix..os..SplitPaths$u20$as$u20$core..iter..traits..iterator..Iterator$GT$4next17ha38d759bbfa26b66E', symObjAddr: 0x3A7EC, symBinAddr: 0xB622C, symSize: 0xA8 }
  - { offsetInCU: 0x36F25, offset: 0x8BB4F, size: 0x8, addend: 0x0, symName: '__ZN78_$LT$std..sys..pal..unix..os..JoinPathsError$u20$as$u20$core..fmt..Display$GT$3fmt17hb7ba79344822335dE', symObjAddr: 0x3A894, symBinAddr: 0xB62D4, symSize: 0x5C }
  - { offsetInCU: 0x36FF0, offset: 0x8BC1A, size: 0x8, addend: 0x0, symName: __ZN3std3sys3pal4unix2os5errno17hcd50e2766a3d0a3bE, symObjAddr: 0x3A644, symBinAddr: 0xB6084, symSize: 0x18 }
  - { offsetInCU: 0x37017, offset: 0x8BC41, size: 0x8, addend: 0x0, symName: '__ZN3std3sys3pal4unix2os5chdir28_$u7b$$u7b$closure$u7d$$u7d$17hc818792c25e8fe98E', symObjAddr: 0x3A734, symBinAddr: 0xB6174, symSize: 0x28 }
  - { offsetInCU: 0x3702C, offset: 0x8BC56, size: 0x8, addend: 0x0, symName: __ZN3std3sys3pal4unix2os5chdir17h36320cb5dd2a829eE, symObjAddr: 0x3A65C, symBinAddr: 0xB609C, symSize: 0xD8 }
  - { offsetInCU: 0x37133, offset: 0x8BD5D, size: 0x8, addend: 0x0, symName: __ZN3std3sys3pal4unix2os11split_paths13bytes_to_path17h115fcab3ade209c7E, symObjAddr: 0x3A75C, symBinAddr: 0xB619C, symSize: 0x0 }
  - { offsetInCU: 0x3729D, offset: 0x8BEC7, size: 0x8, addend: 0x0, symName: '__ZN73_$LT$std..sys..pal..unix..os..EnvStrDebug$u20$as$u20$core..fmt..Debug$GT$3fmt17hecc1b93a1dc9140bE', symObjAddr: 0x3A8F0, symBinAddr: 0xB6330, symSize: 0xD4 }
  - { offsetInCU: 0x3740B, offset: 0x8C035, size: 0x8, addend: 0x0, symName: '__ZN65_$LT$std..sys..pal..unix..os..Env$u20$as$u20$core..fmt..Debug$GT$3fmt17h7c3af2cbe6d7b81dE', symObjAddr: 0x3A9C4, symBinAddr: 0xB6404, symSize: 0x7C }
  - { offsetInCU: 0x37490, offset: 0x8C0BA, size: 0x8, addend: 0x0, symName: __ZN3std3sys3pal4unix2os13env_read_lock17hd1015e7adf66559eE, symObjAddr: 0x3AAC0, symBinAddr: 0xB6500, symSize: 0x7CC }
  - { offsetInCU: 0x38B22, offset: 0x8D74C, size: 0x8, addend: 0x0, symName: '__ZN3std3sys3pal4unix2os6getenv28_$u7b$$u7b$closure$u7d$$u7d$17h2b0d3d7cf6379f16E', symObjAddr: 0x3B28C, symBinAddr: 0xB6CCC, symSize: 0x124 }
  - { offsetInCU: 0x38D2E, offset: 0x8D958, size: 0x8, addend: 0x0, symName: '__ZN3std3sys3pal4unix2os8unsetenv28_$u7b$$u7b$closure$u7d$$u7d$17hb263abc4bb4bc7bbE', symObjAddr: 0x3B590, symBinAddr: 0xB6FD0, symSize: 0x138 }
  - { offsetInCU: 0x390FC, offset: 0x8DD26, size: 0x8, addend: 0x0, symName: __ZN3std3sys3pal4unix2os4exit17h1031143e18ad41fdE, symObjAddr: 0x3B6C8, symBinAddr: 0xB7108, symSize: 0xC }
  - { offsetInCU: 0x3914C, offset: 0x8DD76, size: 0x8, addend: 0x0, symName: __ZN3std3sys3pal4unix6thread6Thread3new17hc93a1fc622a6c38bE, symObjAddr: 0x3DA98, symBinAddr: 0xB94D8, symSize: 0x230 }
  - { offsetInCU: 0x3944D, offset: 0x8E077, size: 0x8, addend: 0x0, symName: __ZN3std3sys3pal4unix6thread6Thread8set_name17hc5c92f04c5274e25E, symObjAddr: 0x3DD4C, symBinAddr: 0xB978C, symSize: 0x70 }
  - { offsetInCU: 0x39565, offset: 0x8E18F, size: 0x8, addend: 0x0, symName: __ZN3std3sys3pal4unix6thread6Thread4join17h2add7bf41d323660E, symObjAddr: 0x3DDBC, symBinAddr: 0xB97FC, symSize: 0x90 }
  - { offsetInCU: 0x395D6, offset: 0x8E200, size: 0x8, addend: 0x0, symName: __ZN3std3sys3pal4unix6thread6Thread3new12thread_start17hd4a693702e17d004E, symObjAddr: 0x3DCC8, symBinAddr: 0xB9708, symSize: 0x84 }
  - { offsetInCU: 0x3978C, offset: 0x8E3B6, size: 0x8, addend: 0x0, symName: '__ZN77_$LT$std..sys..pal..unix..thread..Thread$u20$as$u20$core..ops..drop..Drop$GT$4drop17h60a0dcc61f57633cE', symObjAddr: 0x3DE4C, symBinAddr: 0xB988C, symSize: 0x14 }
  - { offsetInCU: 0x3981B, offset: 0x8E445, size: 0x8, addend: 0x0, symName: __ZN3std3sys3pal4unix4time8Timespec3now17h428143e0d61ac455E, symObjAddr: 0x3E08C, symBinAddr: 0xB9ACC, symSize: 0x11C }
  - { offsetInCU: 0x398CD, offset: 0x8E4F7, size: 0x8, addend: 0x0, symName: __ZN3std3sys3pal4unix4time8Timespec12sub_timespec17h7232a2b83501c79cE, symObjAddr: 0x3E1A8, symBinAddr: 0xB9BE8, symSize: 0x100 }
  - { offsetInCU: 0x39AAA, offset: 0x8E6D4, size: 0x8, addend: 0x0, symName: '__ZN90_$LT$std..sys..pal..unix..args..Args$u20$as$u20$core..iter..traits..iterator..Iterator$GT$4next17h0a0336573868f838E', symObjAddr: 0x3691C, symBinAddr: 0xB235C, symSize: 0x48 }
  - { offsetInCU: 0x39B23, offset: 0x8E74D, size: 0x8, addend: 0x0, symName: '__ZN90_$LT$std..sys..pal..unix..args..Args$u20$as$u20$core..iter..traits..iterator..Iterator$GT$9size_hint17h67fa64fdb4a95bcbE', symObjAddr: 0x36964, symBinAddr: 0xB23A4, symSize: 0x38 }
  - { offsetInCU: 0x39B8E, offset: 0x8E7B8, size: 0x8, addend: 0x0, symName: '__ZN101_$LT$std..sys..pal..unix..args..Args$u20$as$u20$core..iter..traits..exact_size..ExactSizeIterator$GT$3len17h2b219cca05957a71E', symObjAddr: 0x3699C, symBinAddr: 0xB23DC, symSize: 0x2C }
  - { offsetInCU: 0x39C0F, offset: 0x8E839, size: 0x8, addend: 0x0, symName: '__ZN105_$LT$std..sys..pal..unix..args..Args$u20$as$u20$core..iter..traits..double_ended..DoubleEndedIterator$GT$9next_back17hbf660c4787c95d5eE', symObjAddr: 0x369C8, symBinAddr: 0xB2408, symSize: 0x48 }
  - { offsetInCU: 0x39C92, offset: 0x8E8BC, size: 0x8, addend: 0x0, symName: '__ZN68_$LT$std..sys..pal..unix..args..Args$u20$as$u20$core..fmt..Debug$GT$3fmt17h906dfb04ad9dd967E', symObjAddr: 0x368A4, symBinAddr: 0xB22E4, symSize: 0x78 }
  - { offsetInCU: 0x39DB4, offset: 0x8E9DE, size: 0x8, addend: 0x0, symName: '__ZN67_$LT$std..sys..pal..unix..stdio..Stdin$u20$as$u20$std..io..Read$GT$4read17hfb532f41ed8f218cE', symObjAddr: 0x3D818, symBinAddr: 0xB9258, symSize: 0x4C }
  - { offsetInCU: 0x39E92, offset: 0x8EABC, size: 0x8, addend: 0x0, symName: '__ZN67_$LT$std..sys..pal..unix..stdio..Stdin$u20$as$u20$std..io..Read$GT$8read_buf17hd91f957c5ff1a671E', symObjAddr: 0x3D864, symBinAddr: 0xB92A4, symSize: 0x90 }
  - { offsetInCU: 0x3A028, offset: 0x8EC52, size: 0x8, addend: 0x0, symName: '__ZN67_$LT$std..sys..pal..unix..stdio..Stdin$u20$as$u20$std..io..Read$GT$13read_vectored17hbde9b65422d15794E', symObjAddr: 0x3D8F4, symBinAddr: 0xB9334, symSize: 0x4C }
  - { offsetInCU: 0x3A134, offset: 0x8ED5E, size: 0x8, addend: 0x0, symName: '__ZN69_$LT$std..sys..pal..unix..stdio..Stdout$u20$as$u20$std..io..Write$GT$5write17h3d2d08d432dbabb4E', symObjAddr: 0x3D940, symBinAddr: 0xB9380, symSize: 0x4C }
  - { offsetInCU: 0x3A214, offset: 0x8EE3E, size: 0x8, addend: 0x0, symName: '__ZN69_$LT$std..sys..pal..unix..stdio..Stdout$u20$as$u20$std..io..Write$GT$14write_vectored17h1bba9a8994617d2bE', symObjAddr: 0x3D98C, symBinAddr: 0xB93CC, symSize: 0x4C }
  - { offsetInCU: 0x3A315, offset: 0x8EF3F, size: 0x8, addend: 0x0, symName: '__ZN69_$LT$std..sys..pal..unix..stdio..Stderr$u20$as$u20$std..io..Write$GT$5write17hddd91e0e61311d3aE', symObjAddr: 0x3D9D8, symBinAddr: 0xB9418, symSize: 0x4C }
  - { offsetInCU: 0x3A3F5, offset: 0x8F01F, size: 0x8, addend: 0x0, symName: '__ZN69_$LT$std..sys..pal..unix..stdio..Stderr$u20$as$u20$std..io..Write$GT$14write_vectored17hdc2b90798ec578bcE', symObjAddr: 0x3DA24, symBinAddr: 0xB9464, symSize: 0x4C }
  - { offsetInCU: 0x3A4D5, offset: 0x8F0FF, size: 0x8, addend: 0x0, symName: '__ZN69_$LT$std..sys..pal..unix..stdio..Stderr$u20$as$u20$std..io..Write$GT$17is_write_vectored17h00dec78cf65e9306E', symObjAddr: 0x3DA70, symBinAddr: 0xB94B0, symSize: 0x14 }
  - { offsetInCU: 0x3A4EF, offset: 0x8F119, size: 0x8, addend: 0x0, symName: '__ZN69_$LT$std..sys..pal..unix..stdio..Stderr$u20$as$u20$std..io..Write$GT$5flush17hdde1838b52ef2571E', symObjAddr: 0x3DA84, symBinAddr: 0xB94C4, symSize: 0x14 }
  - { offsetInCU: 0x3A5D5, offset: 0x8F1FF, size: 0x8, addend: 0x0, symName: __ZN3std3sys3pal4unix4pipe8AnonPipe5write17h2c4c27a75eeaaaf6E, symObjAddr: 0x3B81C, symBinAddr: 0xB725C, symSize: 0x48 }
  - { offsetInCU: 0x3A6BC, offset: 0x8F2E6, size: 0x8, addend: 0x0, symName: __ZN3std3sys3pal4unix4pipe9anon_pipe17hf8dfc7fc200a3e07E, symObjAddr: 0x3B6D4, symBinAddr: 0xB7114, symSize: 0x148 }
  - { offsetInCU: 0x3A97C, offset: 0x8F5A6, size: 0x8, addend: 0x0, symName: __ZN3std3sys3pal4unix4pipe5read217h9f60854e558dba4dE, symObjAddr: 0x3B864, symBinAddr: 0xB72A4, symSize: 0x2A8 }
  - { offsetInCU: 0x3B004, offset: 0x8FC2E, size: 0x8, addend: 0x0, symName: __ZN3std3sys3pal4unix3net6Socket7new_raw17h185388eb2c689ea4E, symObjAddr: 0x3A100, symBinAddr: 0xB5B40, symSize: 0xF8 }
  - { offsetInCU: 0x3B250, offset: 0x8FE7A, size: 0x8, addend: 0x0, symName: __ZN3std3sys3pal4unix3net6Socket8new_pair17hc238232a19f4d3baE, symObjAddr: 0x3A1F8, symBinAddr: 0xB5C38, symSize: 0x150 }
  - { offsetInCU: 0x3B4DC, offset: 0x90106, size: 0x8, addend: 0x0, symName: __ZN3std3sys3pal4unix3net6Socket6accept17h6eb19bdb53892a66E, symObjAddr: 0x3A348, symBinAddr: 0xB5D88, symSize: 0x108 }
  - { offsetInCU: 0x3B67E, offset: 0x902A8, size: 0x8, addend: 0x0, symName: __ZN3std3sys3pal4unix3net6Socket20recv_from_with_flags17hef98d14e9e11f730E, symObjAddr: 0x3A450, symBinAddr: 0xB5E90, symSize: 0x154 }
  - { offsetInCU: 0x3B815, offset: 0x9043F, size: 0x8, addend: 0x0, symName: __ZN3std3sys3pal4unix3net6Socket10take_error17h4b3c9ff8ab5fe069E, symObjAddr: 0x3A5A4, symBinAddr: 0xB5FE4, symSize: 0x70 }
  - { offsetInCU: 0x3B935, offset: 0x9055F, size: 0x8, addend: 0x0, symName: '__ZN77_$LT$std..sys..pal..unix..net..Socket$u20$as$u20$std..os..fd..owned..AsFd$GT$5as_fd17h959bbc6c2b6371c7E', symObjAddr: 0x3A614, symBinAddr: 0xB6054, symSize: 0x0 }
  - { offsetInCU: 0x3B970, offset: 0x9059A, size: 0x8, addend: 0x0, symName: '__ZN77_$LT$std..sys..pal..unix..net..Socket$u20$as$u20$std..os..fd..owned..AsFd$GT$5as_fd17h959bbc6c2b6371c7E', symObjAddr: 0x3A614, symBinAddr: 0xB6054, symSize: 0x0 }
  - { offsetInCU: 0x3BA64, offset: 0x9068E, size: 0x8, addend: 0x0, symName: '__ZN3std3sys3pal4unix4weak18DlsymWeak$LT$F$GT$10initialize17h4eba4b415837ab6dE', symObjAddr: 0x367F8, symBinAddr: 0x103ED8, symSize: 0x58 }
  - { offsetInCU: 0x3BAD6, offset: 0x90700, size: 0x8, addend: 0x0, symName: '__ZN3std3sys3pal4unix4weak18DlsymWeak$LT$F$GT$10initialize17h991461ac65fa6f2dE', symObjAddr: 0x36850, symBinAddr: 0x103F30, symSize: 0x54 }
  - { offsetInCU: 0x3BB99, offset: 0x907C3, size: 0x8, addend: 0x0, symName: __ZN3std3sys3pal4unix17thread_local_dtor13register_dtor17h28471b989b2f1039E, symObjAddr: 0x3DE60, symBinAddr: 0xB98A0, symSize: 0x140 }
  - { offsetInCU: 0x3BEC5, offset: 0x90AEF, size: 0x8, addend: 0x0, symName: __ZN3std3sys3pal4unix17thread_local_dtor13register_dtor9run_dtors17hc43330f853e7066eE, symObjAddr: 0x3DFA0, symBinAddr: 0xB99E0, symSize: 0xEC }
  - { offsetInCU: 0x3C31A, offset: 0x90F44, size: 0x8, addend: 0x0, symName: __ZN3std3sys3pal4unix4rand19hashmap_random_keys17h698c80e6fc6d1b24E, symObjAddr: 0x3D770, symBinAddr: 0xB91B0, symSize: 0xA8 }
  - { offsetInCU: 0x3C446, offset: 0x91070, size: 0x8, addend: 0x0, symName: __ZN3std3sys3pal4unix17decode_error_kind17hd4231906462975f5E, symObjAddr: 0x3E2A8, symBinAddr: 0xB9CE8, symSize: 0x30 }
  - { offsetInCU: 0x3C460, offset: 0x9108A, size: 0x8, addend: 0x0, symName: __ZN3std3sys3pal4unix14abort_internal17h361f22fa2c553428E, symObjAddr: 0x3E2D8, symBinAddr: 0xB9D18, symSize: 0xC }
  - { offsetInCU: 0x3C5C5, offset: 0x911EF, size: 0x8, addend: 0x0, symName: __ZN3std3sys3pal6common14small_c_string24run_with_cstr_allocating17h27a976bc4bc3beb3E, symObjAddr: 0x31DAC, symBinAddr: 0x10367C, symSize: 0xA0 }
  - { offsetInCU: 0x3C736, offset: 0x91360, size: 0x8, addend: 0x0, symName: __ZN3std3sys3pal6common14small_c_string24run_with_cstr_allocating17h2ab1b811022e79eeE, symObjAddr: 0x31E4C, symBinAddr: 0x10371C, symSize: 0xD0 }
  - { offsetInCU: 0x3C8FC, offset: 0x91526, size: 0x8, addend: 0x0, symName: __ZN3std3sys3pal6common14small_c_string24run_with_cstr_allocating17h3f0646991dcc4aa9E, symObjAddr: 0x31F1C, symBinAddr: 0x1037EC, symSize: 0x9C }
  - { offsetInCU: 0x3CA6D, offset: 0x91697, size: 0x8, addend: 0x0, symName: __ZN3std3sys3pal6common14small_c_string24run_with_cstr_allocating17h94d20156c53dd5deE, symObjAddr: 0x31FB8, symBinAddr: 0x103888, symSize: 0xC4 }
  - { offsetInCU: 0x3CC33, offset: 0x9185D, size: 0x8, addend: 0x0, symName: __ZN3std3sys3pal6common14small_c_string24run_with_cstr_allocating17h9e2427172d7ffaf8E, symObjAddr: 0x3207C, symBinAddr: 0x10394C, symSize: 0xCC }
  - { offsetInCU: 0x3CDF9, offset: 0x91A23, size: 0x8, addend: 0x0, symName: __ZN3std3sys3pal6common14small_c_string24run_with_cstr_allocating17habfed6316f587031E, symObjAddr: 0x32148, symBinAddr: 0x103A18, symSize: 0xE4 }
  - { offsetInCU: 0x3CFBF, offset: 0x91BE9, size: 0x8, addend: 0x0, symName: __ZN3std3sys3pal6common14small_c_string24run_with_cstr_allocating17hae1255f62d5c6108E, symObjAddr: 0x3222C, symBinAddr: 0x103AFC, symSize: 0xD0 }
  - { offsetInCU: 0x3D19A, offset: 0x91DC4, size: 0x8, addend: 0x0, symName: __ZN3std3sys3pal6common14small_c_string24run_with_cstr_allocating17hc0f8026852b09a58E, symObjAddr: 0x322FC, symBinAddr: 0x103BCC, symSize: 0xC0 }
  - { offsetInCU: 0x3D360, offset: 0x91F8A, size: 0x8, addend: 0x0, symName: __ZN3std3sys3pal6common14small_c_string24run_with_cstr_allocating17hd9c0b161a32fe7f0E, symObjAddr: 0x323BC, symBinAddr: 0x103C8C, symSize: 0xBC }
  - { offsetInCU: 0x3D752, offset: 0x9237C, size: 0x8, addend: 0x0, symName: __ZN3std3sys3pal6common5alloc16realloc_fallback17h4e88b2946b6d3876E, symObjAddr: 0x31D08, symBinAddr: 0xAE050, symSize: 0xA4 }
  - { offsetInCU: 0x3D8D4, offset: 0x924FE, size: 0x8, addend: 0x0, symName: __ZN3std3sys6os_str5bytes3Buf11into_string17h44c580759f7de16fE, symObjAddr: 0x3F644, symBinAddr: 0xBB084, symSize: 0xA0 }
  - { offsetInCU: 0x3D994, offset: 0x925BE, size: 0x8, addend: 0x0, symName: __ZN3std3sys6os_str5bytes3Buf10push_slice17h1d7fd7e16193f790E, symObjAddr: 0x3F6E4, symBinAddr: 0xBB124, symSize: 0x74 }
  - { offsetInCU: 0x3DAFF, offset: 0x92729, size: 0x8, addend: 0x0, symName: __ZN3std3sys6os_str5bytes5Slice15to_string_lossy17h4fc1c29ef8319f18E, symObjAddr: 0x3F88C, symBinAddr: 0xBB2CC, symSize: 0x10 }
  - { offsetInCU: 0x3DB13, offset: 0x9273D, size: 0x8, addend: 0x0, symName: __ZN3std3sys6os_str5bytes5Slice8to_owned17hb195decb55fd6b3aE, symObjAddr: 0x3F89C, symBinAddr: 0xBB2DC, symSize: 0x90 }
  - { offsetInCU: 0x3DC19, offset: 0x92843, size: 0x8, addend: 0x0, symName: __ZN3std3sys6os_str5bytes5Slice10clone_into17h5c665bfc862c2263E, symObjAddr: 0x3F92C, symBinAddr: 0xBB36C, symSize: 0x74 }
  - { offsetInCU: 0x3DD4F, offset: 0x92979, size: 0x8, addend: 0x0, symName: __ZN3std3sys6os_str5bytes5Slice9empty_box17hcc96809ed11fdab8E, symObjAddr: 0x3F9A0, symBinAddr: 0xBB3E0, symSize: 0x18 }
  - { offsetInCU: 0x3DD85, offset: 0x929AF, size: 0x8, addend: 0x0, symName: '__ZN69_$LT$std..sys..os_str..bytes..Slice$u20$as$u20$core..fmt..Display$GT$3fmt17hecee0fc3a1cbb2fdE', symObjAddr: 0x3F588, symBinAddr: 0xBAFC8, symSize: 0xA0 }
  - { offsetInCU: 0x3DDD1, offset: 0x929FB, size: 0x8, addend: 0x0, symName: '__ZN67_$LT$std..sys..os_str..bytes..Buf$u20$as$u20$core..fmt..Display$GT$3fmt17heaebcc2caab40ea9E', symObjAddr: 0x3F628, symBinAddr: 0xBB068, symSize: 0x1C }
  - { offsetInCU: 0x3DE52, offset: 0x92A7C, size: 0x8, addend: 0x0, symName: __ZN3std3sys6os_str5bytes5Slice21check_public_boundary9slow_path17h76a436bb678b8bd9E, symObjAddr: 0x3F758, symBinAddr: 0xBB198, symSize: 0x134 }
  - { offsetInCU: 0x3E00A, offset: 0x92C34, size: 0x8, addend: 0x0, symName: '__ZN3std3sys11personality3gcc14find_eh_action28_$u7b$$u7b$closure$u7d$$u7d$17h0376fc8048bea098E', symObjAddr: 0x3F1F0, symBinAddr: 0xBAC30, symSize: 0x18 }
  - { offsetInCU: 0x3E01E, offset: 0x92C48, size: 0x8, addend: 0x0, symName: '__ZN3std3sys11personality3gcc14find_eh_action28_$u7b$$u7b$closure$u7d$$u7d$17hb956fd3765654383E', symObjAddr: 0x3F208, symBinAddr: 0xBAC48, symSize: 0x18 }
  - { offsetInCU: 0x3E04E, offset: 0x92C78, size: 0x8, addend: 0x0, symName: _rust_eh_personality, symObjAddr: 0x3F220, symBinAddr: 0xBAC60, symSize: 0x368 }
  - { offsetInCU: 0x3E34F, offset: 0x92F79, size: 0x8, addend: 0x0, symName: __ZN3std3sys11personality5dwarf2eh19read_encoded_offset17hc1698a49e5be65a6E, symObjAddr: 0x32478, symBinAddr: 0xAE0F4, symSize: 0x150 }
  - { offsetInCU: 0x3E511, offset: 0x9313B, size: 0x8, addend: 0x0, symName: '__ZN102_$LT$std..sys..sync..mutex..pthread..AllocatedMutex$u20$as$u20$std..sys_common..lazy_box..LazyInit$GT$4init17hb6cfa42b36c66de4E', symObjAddr: 0x3FF8C, symBinAddr: 0xBB9CC, symSize: 0x1C8 }
  - { offsetInCU: 0x3E68A, offset: 0x932B4, size: 0x8, addend: 0x0, symName: '__ZN102_$LT$std..sys..sync..mutex..pthread..AllocatedMutex$u20$as$u20$std..sys_common..lazy_box..LazyInit$GT$7destroy17h986fb2788c91bb7fE', symObjAddr: 0x40154, symBinAddr: 0xBBB94, symSize: 0x4C }
  - { offsetInCU: 0x3E73D, offset: 0x93367, size: 0x8, addend: 0x0, symName: '__ZN102_$LT$std..sys..sync..mutex..pthread..AllocatedMutex$u20$as$u20$std..sys_common..lazy_box..LazyInit$GT$11cancel_init17h202a8669bea34b46E', symObjAddr: 0x401A0, symBinAddr: 0xBBBE0, symSize: 0x2C }
  - { offsetInCU: 0x3E848, offset: 0x93472, size: 0x8, addend: 0x0, symName: '__ZN90_$LT$std..sys..sync..mutex..pthread..PthreadMutexAttr$u20$as$u20$core..ops..drop..Drop$GT$4drop17h707f6e74441a974fE', symObjAddr: 0x4023C, symBinAddr: 0xBBC0C, symSize: 0x14 }
  - { offsetInCU: 0x3E869, offset: 0x93493, size: 0x8, addend: 0x0, symName: __ZN3std3sys4sync5mutex7pthread5Mutex4lock4fail17hd4a2923d2f44374fE, symObjAddr: 0x401CC, symBinAddr: 0x103F84, symSize: 0x70 }
  - { offsetInCU: 0x3E8D8, offset: 0x93502, size: 0x8, addend: 0x0, symName: '__ZN83_$LT$std..sys..sync..rwlock..queue..PanicGuard$u20$as$u20$core..ops..drop..Drop$GT$4drop17h2f28f24dd601f2baE', symObjAddr: 0x406F4, symBinAddr: 0xBBD5C, symSize: 0x44 }
  - { offsetInCU: 0x3E9CD, offset: 0x935F7, size: 0x8, addend: 0x0, symName: __ZN3std3sys4sync6rwlock5queue6RwLock14lock_contended17h7a3dfe7b1f7c2366E, symObjAddr: 0x40738, symBinAddr: 0x10435C, symSize: 0x25C }
  - { offsetInCU: 0x3EF17, offset: 0x93B41, size: 0x8, addend: 0x0, symName: __ZN3std3sys4sync6rwlock5queue6RwLock21read_unlock_contended17h0591d6dc4a688feeE, symObjAddr: 0x40994, symBinAddr: 0x1045B8, symSize: 0x70 }
  - { offsetInCU: 0x3F136, offset: 0x93D60, size: 0x8, addend: 0x0, symName: __ZN3std3sys4sync6rwlock5queue6RwLock16unlock_contended17h4bff1af5a8874499E, symObjAddr: 0x40A04, symBinAddr: 0x104628, symSize: 0x38 }
  - { offsetInCU: 0x3F1D3, offset: 0x93DFD, size: 0x8, addend: 0x0, symName: __ZN3std3sys4sync6rwlock5queue6RwLock12unlock_queue17h0502cffa208d3978E, symObjAddr: 0x40A3C, symBinAddr: 0xBBDA0, symSize: 0x184 }
  - { offsetInCU: 0x3F9C8, offset: 0x945F2, size: 0x8, addend: 0x0, symName: __ZN3std3sys4sync6rwlock5queue10write_lock17h4fbc03c6967b9745E, symObjAddr: 0x40694, symBinAddr: 0xBBCFC, symSize: 0x18 }
  - { offsetInCU: 0x3FA20, offset: 0x9464A, size: 0x8, addend: 0x0, symName: __ZN3std3sys4sync6rwlock5queue9read_lock17hb6112ef2dfe229f5E, symObjAddr: 0x406AC, symBinAddr: 0xBBD14, symSize: 0x48 }
  - { offsetInCU: 0x3FAEF, offset: 0x94719, size: 0x8, addend: 0x0, symName: __ZN3std3sys4sync4once5queue4Once4call17hefe0fb0ed839fdffE, symObjAddr: 0x40250, symBinAddr: 0x103FF4, symSize: 0x368 }
  - { offsetInCU: 0x40344, offset: 0x94F6E, size: 0x8, addend: 0x0, symName: '__ZN82_$LT$std..sys..sync..once..queue..WaiterQueue$u20$as$u20$core..ops..drop..Drop$GT$4drop17h4ab6bee251ec8accE', symObjAddr: 0x405B8, symBinAddr: 0xBBC20, symSize: 0xDC }
  - { offsetInCU: 0x405A7, offset: 0x951D1, size: 0x8, addend: 0x0, symName: __ZN3std3sys4sync7condvar7pthread7Condvar12wait_timeout17hffb08b4726cf53d6E, symObjAddr: 0x3FDB0, symBinAddr: 0xBB7F0, symSize: 0x1DC }
  - { offsetInCU: 0x409B1, offset: 0x955DB, size: 0x8, addend: 0x0, symName: '__ZN106_$LT$std..sys..sync..condvar..pthread..AllocatedCondvar$u20$as$u20$std..sys_common..lazy_box..LazyInit$GT$4init17hca28573f99230717E', symObjAddr: 0x3FD24, symBinAddr: 0xBB764, symSize: 0x8C }
  - { offsetInCU: 0x40AEC, offset: 0x95716, size: 0x8, addend: 0x0, symName: '__ZN3std3sys12thread_local10fast_local12Key$LT$T$GT$14try_initialize17h71de29e5d0f8600cE', symObjAddr: 0x40BC0, symBinAddr: 0xBBF24, symSize: 0xE4 }
  - { offsetInCU: 0x40CDE, offset: 0x95908, size: 0x8, addend: 0x0, symName: '__ZN3std3sys12thread_local10fast_local12Key$LT$T$GT$14try_initialize17haa91afdb24316b6fE', symObjAddr: 0x40CA4, symBinAddr: 0xBC008, symSize: 0x4C }
  - { offsetInCU: 0x40CFD, offset: 0x95927, size: 0x8, addend: 0x0, symName: '__ZN3std3sys12thread_local10fast_local12Key$LT$T$GT$14try_initialize17haa91afdb24316b6fE', symObjAddr: 0x40CA4, symBinAddr: 0xBC008, symSize: 0x4C }
  - { offsetInCU: 0x40D12, offset: 0x9593C, size: 0x8, addend: 0x0, symName: '__ZN3std3sys12thread_local10fast_local12Key$LT$T$GT$14try_initialize17haa91afdb24316b6fE', symObjAddr: 0x40CA4, symBinAddr: 0xBC008, symSize: 0x4C }
  - { offsetInCU: 0x40DC0, offset: 0x959EA, size: 0x8, addend: 0x0, symName: __ZN3std3sys12thread_local10fast_local13destroy_value17h779f3b870f16527aE, symObjAddr: 0x40CF0, symBinAddr: 0xBC054, symSize: 0x58 }
  - { offsetInCU: 0x41070, offset: 0x95C9A, size: 0x8, addend: 0x0, symName: __ZN3std3sys4path4unix8absolute17h0d4061fdd1353a62E, symObjAddr: 0x3F9B8, symBinAddr: 0xBB3F8, symSize: 0x36C }
  - { offsetInCU: 0x41A2C, offset: 0x96656, size: 0x8, addend: 0x0, symName: '__ZN67_$LT$std..os..fd..owned..BorrowedFd$u20$as$u20$core..fmt..Debug$GT$3fmt17hdf65652886c990a6E', symObjAddr: 0x2C3CC, symBinAddr: 0xA89DC, symSize: 0x64 }
  - { offsetInCU: 0x41A54, offset: 0x9667E, size: 0x8, addend: 0x0, symName: '__ZN64_$LT$std..os..fd..owned..OwnedFd$u20$as$u20$core..fmt..Debug$GT$3fmt17h02cc0b97492d763aE', symObjAddr: 0x2C430, symBinAddr: 0xA8A40, symSize: 0x64 }
  - { offsetInCU: 0x41A9D, offset: 0x966C7, size: 0x8, addend: 0x0, symName: __ZN3std2os2fd5owned10BorrowedFd18try_clone_to_owned17hf16080ff8d459ea7E, symObjAddr: 0x2C364, symBinAddr: 0xA8974, symSize: 0x68 }
  - { offsetInCU: 0x41B88, offset: 0x967B2, size: 0x8, addend: 0x0, symName: __ZN3std2os2fd5owned7OwnedFd9try_clone17h367ee6c5aea1c45bE, symObjAddr: 0x2C2DC, symBinAddr: 0xA88EC, symSize: 0x88 }
  - { offsetInCU: 0x41DF9, offset: 0x96A23, size: 0x8, addend: 0x0, symName: '__ZN60_$LT$std..fs..File$u20$as$u20$std..os..unix..fs..FileExt$GT$7read_at17h9840f7f84c6c23e5E', symObjAddr: 0x2A47C, symBinAddr: 0xA6A8C, symSize: 0x4C }
  - { offsetInCU: 0x41EF6, offset: 0x96B20, size: 0x8, addend: 0x0, symName: '__ZN60_$LT$std..fs..File$u20$as$u20$std..os..unix..fs..FileExt$GT$16read_vectored_at17hace65ade262a4b74E', symObjAddr: 0x2A4C8, symBinAddr: 0xA6AD8, symSize: 0x10 }
  - { offsetInCU: 0x41F28, offset: 0x96B52, size: 0x8, addend: 0x0, symName: '__ZN60_$LT$std..fs..File$u20$as$u20$std..os..unix..fs..FileExt$GT$8write_at17haf2a5dacbfc11bdeE', symObjAddr: 0x2A4D8, symBinAddr: 0xA6AE8, symSize: 0x4C }
  - { offsetInCU: 0x42027, offset: 0x96C51, size: 0x8, addend: 0x0, symName: '__ZN60_$LT$std..fs..File$u20$as$u20$std..os..unix..fs..FileExt$GT$17write_vectored_at17h814109de9bde6b24E', symObjAddr: 0x2A524, symBinAddr: 0xA6B34, symSize: 0x10 }
  - { offsetInCU: 0x42060, offset: 0x96C8A, size: 0x8, addend: 0x0, symName: '__ZN69_$LT$std..fs..DirEntry$u20$as$u20$std..os..unix..fs..DirEntryExt2$GT$13file_name_ref17hc4f82ec529d6d6c4E', symObjAddr: 0x2A534, symBinAddr: 0xA6B44, symSize: 0x18 }
  - { offsetInCU: 0x420CC, offset: 0x96CF6, size: 0x8, addend: 0x0, symName: __ZN3std2os4unix3net4addr11sockaddr_un17h1c62b2460535345dE, symObjAddr: 0x2A54C, symBinAddr: 0xA6B5C, symSize: 0x134 }
  - { offsetInCU: 0x421B9, offset: 0x96DE3, size: 0x8, addend: 0x0, symName: __ZN3std2os4unix3net4addr10SocketAddr10is_unnamed17h1815998eb3b04aceE, symObjAddr: 0x2A680, symBinAddr: 0xA6C90, symSize: 0x44 }
  - { offsetInCU: 0x4220C, offset: 0x96E36, size: 0x8, addend: 0x0, symName: __ZN3std2os4unix3net4addr10SocketAddr11as_pathname17h56794485db1a1363E, symObjAddr: 0x2A6C4, symBinAddr: 0xA6CD4, symSize: 0x48 }
  - { offsetInCU: 0x422C1, offset: 0x96EEB, size: 0x8, addend: 0x0, symName: '__ZN73_$LT$std..os..unix..net..addr..SocketAddr$u20$as$u20$core..fmt..Debug$GT$3fmt17hf32102f78957fa37E', symObjAddr: 0x2A70C, symBinAddr: 0xA6D1C, symSize: 0xAC }
  - { offsetInCU: 0x4238F, offset: 0x96FB9, size: 0x8, addend: 0x0, symName: __ZN3std2os4unix3net8datagram12UnixDatagram9bind_addr17h59400a901cbb2077E, symObjAddr: 0x2AA58, symBinAddr: 0xA7068, symSize: 0xB0 }
  - { offsetInCU: 0x424C8, offset: 0x970F2, size: 0x8, addend: 0x0, symName: __ZN3std2os4unix3net8datagram12UnixDatagram7unbound17haa9cdf10d253e194E, symObjAddr: 0x2AB08, symBinAddr: 0xA7118, symSize: 0x58 }
  - { offsetInCU: 0x424FF, offset: 0x97129, size: 0x8, addend: 0x0, symName: __ZN3std2os4unix3net8datagram12UnixDatagram4pair17h8d2b684674c663e8E, symObjAddr: 0x2AB60, symBinAddr: 0xA7170, symSize: 0x54 }
  - { offsetInCU: 0x4253C, offset: 0x97166, size: 0x8, addend: 0x0, symName: __ZN3std2os4unix3net8datagram12UnixDatagram12connect_addr17h374085e484d41ca6E, symObjAddr: 0x2ABB4, symBinAddr: 0xA71C4, symSize: 0x3C }
  - { offsetInCU: 0x42618, offset: 0x97242, size: 0x8, addend: 0x0, symName: __ZN3std2os4unix3net8datagram12UnixDatagram9recv_from17h5a2000149c1bcd5fE, symObjAddr: 0x2ABF0, symBinAddr: 0xA7200, symSize: 0x118 }
  - { offsetInCU: 0x42799, offset: 0x973C3, size: 0x8, addend: 0x0, symName: __ZN3std2os4unix3net8datagram12UnixDatagram4recv17h5963baa7c82d6263E, symObjAddr: 0x2AD08, symBinAddr: 0xA7318, symSize: 0x0 }
  - { offsetInCU: 0x42854, offset: 0x9747E, size: 0x8, addend: 0x0, symName: __ZN3std2os4unix3net8datagram12UnixDatagram12send_to_addr17hca7d3d36c2c20e05E, symObjAddr: 0x2AD4C, symBinAddr: 0xA735C, symSize: 0x4C }
  - { offsetInCU: 0x42925, offset: 0x9754F, size: 0x8, addend: 0x0, symName: __ZN3std2os4unix3net8datagram12UnixDatagram4send17hdefaeae9087a88b9E, symObjAddr: 0x2AD98, symBinAddr: 0xA73A8, symSize: 0x4C }
  - { offsetInCU: 0x42A24, offset: 0x9764E, size: 0x8, addend: 0x0, symName: __ZN3std2os4unix3net8datagram12UnixDatagram9peek_from17he0306bf672b846e4E, symObjAddr: 0x2ADE4, symBinAddr: 0xA73F4, symSize: 0x118 }
  - { offsetInCU: 0x42BF2, offset: 0x9781C, size: 0x8, addend: 0x0, symName: '__ZN79_$LT$std..os..unix..net..datagram..UnixDatagram$u20$as$u20$core..fmt..Debug$GT$3fmt17heaed2f11d0f6647dE', symObjAddr: 0x2A7B8, symBinAddr: 0xA6DC8, symSize: 0x2A0 }
  - { offsetInCU: 0x42E85, offset: 0x97AAF, size: 0x8, addend: 0x0, symName: __ZN3std2os4unix3net8listener12UnixListener9bind_addr17ha85ad0e555088339E, symObjAddr: 0x2B084, symBinAddr: 0xA7694, symSize: 0xC4 }
  - { offsetInCU: 0x42FC9, offset: 0x97BF3, size: 0x8, addend: 0x0, symName: __ZN3std2os4unix3net8listener12UnixListener6accept17h44a532cf27fbe025E, symObjAddr: 0x2B148, symBinAddr: 0xA7758, symSize: 0xFC }
  - { offsetInCU: 0x43105, offset: 0x97D2F, size: 0x8, addend: 0x0, symName: '__ZN79_$LT$std..os..unix..net..listener..UnixListener$u20$as$u20$core..fmt..Debug$GT$3fmt17hfbdb84abb987d13dE', symObjAddr: 0x2AEFC, symBinAddr: 0xA750C, symSize: 0x188 }
  - { offsetInCU: 0x4323C, offset: 0x97E66, size: 0x8, addend: 0x0, symName: '__ZN97_$LT$std..os..unix..net..listener..Incoming$u20$as$u20$core..iter..traits..iterator..Iterator$GT$4next17h576d920a82b13fa1E', symObjAddr: 0x2B244, symBinAddr: 0xA7854, symSize: 0xA4 }
  - { offsetInCU: 0x4336D, offset: 0x97F97, size: 0x8, addend: 0x0, symName: __ZN3std2os4unix3net6stream10UnixStream12connect_addr17hafc0250fecf7e219E, symObjAddr: 0x2B588, symBinAddr: 0xA7B98, symSize: 0xB0 }
  - { offsetInCU: 0x43481, offset: 0x980AB, size: 0x8, addend: 0x0, symName: __ZN3std2os4unix3net6stream10UnixStream4pair17h3bc9bdc44a557380E, symObjAddr: 0x2B638, symBinAddr: 0xA7C48, symSize: 0x54 }
  - { offsetInCU: 0x434BE, offset: 0x980E8, size: 0x8, addend: 0x0, symName: __ZN3std2os4unix3net6stream10UnixStream10local_addr17h1e8f969b08cd2a73E, symObjAddr: 0x2B68C, symBinAddr: 0xA7C9C, symSize: 0x0 }
  - { offsetInCU: 0x435CD, offset: 0x981F7, size: 0x8, addend: 0x0, symName: __ZN3std2os4unix3net6stream10UnixStream9peer_addr17h702e6752617a9048E, symObjAddr: 0x2B76C, symBinAddr: 0xA7D7C, symSize: 0x0 }
  - { offsetInCU: 0x436DC, offset: 0x98306, size: 0x8, addend: 0x0, symName: __ZN3std2os4unix3net6stream10UnixStream9peer_cred17h6a1613f49ab27d78E, symObjAddr: 0x2B84C, symBinAddr: 0xA7E5C, symSize: 0xD0 }
  - { offsetInCU: 0x437BF, offset: 0x983E9, size: 0x8, addend: 0x0, symName: __ZN3std2os4unix3net6stream10UnixStream16set_read_timeout17h54d39041f93c8cbfE, symObjAddr: 0x2B91C, symBinAddr: 0xA7F2C, symSize: 0x0 }
  - { offsetInCU: 0x43887, offset: 0x984B1, size: 0x8, addend: 0x0, symName: __ZN3std2os4unix3net6stream10UnixStream17set_write_timeout17h5720f5610273fe2fE, symObjAddr: 0x2B9D0, symBinAddr: 0xA7FE0, symSize: 0x0 }
  - { offsetInCU: 0x4394F, offset: 0x98579, size: 0x8, addend: 0x0, symName: __ZN3std2os4unix3net6stream10UnixStream12read_timeout17hf7de67e15a163379E, symObjAddr: 0x2BA84, symBinAddr: 0xA8094, symSize: 0x0 }
  - { offsetInCU: 0x43A57, offset: 0x98681, size: 0x8, addend: 0x0, symName: __ZN3std2os4unix3net6stream10UnixStream13write_timeout17h6ce728a4601c878aE, symObjAddr: 0x2BB7C, symBinAddr: 0xA818C, symSize: 0x0 }
  - { offsetInCU: 0x43B5F, offset: 0x98789, size: 0x8, addend: 0x0, symName: __ZN3std2os4unix3net6stream10UnixStream15set_nonblocking17hd5d271104a54fea9E, symObjAddr: 0x2BC74, symBinAddr: 0xA8284, symSize: 0x0 }
  - { offsetInCU: 0x43C03, offset: 0x9882D, size: 0x8, addend: 0x0, symName: __ZN3std2os4unix3net6stream10UnixStream10take_error17hf14ea68903b80324E, symObjAddr: 0x2BCC8, symBinAddr: 0xA82D8, symSize: 0x0 }
  - { offsetInCU: 0x43CDA, offset: 0x98904, size: 0x8, addend: 0x0, symName: __ZN3std2os4unix3net6stream10UnixStream8shutdown17h9a9f67bc95bd0d22E, symObjAddr: 0x2BD3C, symBinAddr: 0xA834C, symSize: 0x0 }
  - { offsetInCU: 0x43D7E, offset: 0x989A8, size: 0x8, addend: 0x0, symName: __ZN3std2os4unix3net6stream10UnixStream4peek17hb0d8f713bb94d4f1E, symObjAddr: 0x2BD78, symBinAddr: 0xA8388, symSize: 0x0 }
  - { offsetInCU: 0x43E6F, offset: 0x98A99, size: 0x8, addend: 0x0, symName: '__ZN75_$LT$std..os..unix..net..stream..UnixStream$u20$as$u20$core..fmt..Debug$GT$3fmt17hf64a2ee5e5b75157E', symObjAddr: 0x2B2E8, symBinAddr: 0xA78F8, symSize: 0x2A0 }
  - { offsetInCU: 0x440E5, offset: 0x98D0F, size: 0x8, addend: 0x0, symName: '__ZN76_$LT$$RF$std..os..unix..net..stream..UnixStream$u20$as$u20$std..io..Read$GT$8read_buf17h44d023101dedaeb3E', symObjAddr: 0x2BED4, symBinAddr: 0xA84E4, symSize: 0x8C }
  - { offsetInCU: 0x44252, offset: 0x98E7C, size: 0x8, addend: 0x0, symName: '__ZN72_$LT$std..os..unix..net..stream..UnixStream$u20$as$u20$std..io..Read$GT$4read17haa45dc032f226930E', symObjAddr: 0x2BDBC, symBinAddr: 0xA83CC, symSize: 0x44 }
  - { offsetInCU: 0x44324, offset: 0x98F4E, size: 0x8, addend: 0x0, symName: '__ZN72_$LT$std..os..unix..net..stream..UnixStream$u20$as$u20$std..io..Read$GT$8read_buf17h3415aaa7de418108E', symObjAddr: 0x2BE00, symBinAddr: 0xA8410, symSize: 0x88 }
  - { offsetInCU: 0x444A0, offset: 0x990CA, size: 0x8, addend: 0x0, symName: '__ZN72_$LT$std..os..unix..net..stream..UnixStream$u20$as$u20$std..io..Read$GT$13read_vectored17h2b0684767428e24fE', symObjAddr: 0x2BE88, symBinAddr: 0xA8498, symSize: 0x4C }
  - { offsetInCU: 0x445DE, offset: 0x99208, size: 0x8, addend: 0x0, symName: '__ZN76_$LT$std..process..Command$u20$as$u20$std..os..unix..process..CommandExt$GT$6groups17hd5462b1f7904195fE', symObjAddr: 0x2BF60, symBinAddr: 0xA8570, symSize: 0xC8 }
  - { offsetInCU: 0x44771, offset: 0x9939B, size: 0x8, addend: 0x0, symName: '__ZN76_$LT$std..process..Command$u20$as$u20$std..os..unix..process..CommandExt$GT$4exec17h6ebd7c372a214d03E', symObjAddr: 0x2C028, symBinAddr: 0xA8638, symSize: 0x26C }
  - { offsetInCU: 0x44DBF, offset: 0x999E9, size: 0x8, addend: 0x0, symName: '__ZN87_$LT$std..process..ExitStatusError$u20$as$u20$std..os..unix..process..ExitStatusExt$GT$8from_raw17h125d0a7724563de3E', symObjAddr: 0x2C294, symBinAddr: 0xA88A4, symSize: 0x38 }
  - { offsetInCU: 0x44DEA, offset: 0x99A14, size: 0x8, addend: 0x0, symName: __ZN3std2os4unix7process9parent_id17hb7a9661cc076c4f3E, symObjAddr: 0x2C2CC, symBinAddr: 0xA88DC, symSize: 0x10 }
  - { offsetInCU: 0x44E39, offset: 0x99A63, size: 0x8, addend: 0x0, symName: '__ZN61_$LT$std..process..ChildStdin$u20$as$u20$core..fmt..Debug$GT$3fmt17hb947195330c01211E', symObjAddr: 0x2F238, symBinAddr: 0xAB848, symSize: 0x38 }
  - { offsetInCU: 0x44E62, offset: 0x99A8C, size: 0x8, addend: 0x0, symName: '__ZN62_$LT$std..process..ChildStdout$u20$as$u20$core..fmt..Debug$GT$3fmt17h5f14b23a0327cc84E', symObjAddr: 0x2F280, symBinAddr: 0xAB890, symSize: 0x38 }
  - { offsetInCU: 0x44E8B, offset: 0x99AB5, size: 0x8, addend: 0x0, symName: '__ZN62_$LT$std..process..ChildStderr$u20$as$u20$core..fmt..Debug$GT$3fmt17he9c5dce04d8e8c77E', symObjAddr: 0x2F394, symBinAddr: 0xAB9A4, symSize: 0x38 }
  - { offsetInCU: 0x44EB4, offset: 0x99ADE, size: 0x8, addend: 0x0, symName: '__ZN59_$LT$std..process..ChildStderr$u20$as$u20$std..io..Read$GT$4read17h96a9fde03bd2132fE', symObjAddr: 0x2F2B8, symBinAddr: 0xAB8C8, symSize: 0x0 }
  - { offsetInCU: 0x44FA9, offset: 0x99BD3, size: 0x8, addend: 0x0, symName: '__ZN59_$LT$std..process..ChildStderr$u20$as$u20$std..io..Read$GT$8read_buf17h26673176ddff39c8E', symObjAddr: 0x2F304, symBinAddr: 0xAB914, symSize: 0x0 }
  - { offsetInCU: 0x45163, offset: 0x99D8D, size: 0x8, addend: 0x0, symName: '__ZN193_$LT$std..process..Child$u20$as$u20$std..sys_common..FromInner$LT$$LP$std..sys..pal..unix..process..process_inner..Process$C$std..sys..pal..unix..process..process_common..StdioPipes$RP$$GT$$GT$10from_inner17hc9c50489d2ba4fdbE', symObjAddr: 0x2F10C, symBinAddr: 0xAB71C, symSize: 0x30 }
  - { offsetInCU: 0x45185, offset: 0x99DAF, size: 0x8, addend: 0x0, symName: '__ZN126_$LT$std..process..Child$u20$as$u20$std..sys_common..IntoInner$LT$std..sys..pal..unix..process..process_inner..Process$GT$$GT$10into_inner17h93491110aaa993b1E', symObjAddr: 0x2F13C, symBinAddr: 0xAB74C, symSize: 0x60 }
  - { offsetInCU: 0x4535A, offset: 0x99F84, size: 0x8, addend: 0x0, symName: '__ZN56_$LT$std..process..Child$u20$as$u20$core..fmt..Debug$GT$3fmt17h784a694f727f5222E', symObjAddr: 0x2F19C, symBinAddr: 0xAB7AC, symSize: 0x9C }
  - { offsetInCU: 0x4537C, offset: 0x99FA6, size: 0x8, addend: 0x0, symName: '__ZN59_$LT$std..process..ChildStdout$u20$as$u20$std..io..Read$GT$11read_to_end17h33383a4e7e8ab932E', symObjAddr: 0x2F270, symBinAddr: 0xAB880, symSize: 0x10 }
  - { offsetInCU: 0x453BC, offset: 0x99FE6, size: 0x8, addend: 0x0, symName: __ZN3std7process7Command9env_clear17h5c2cdf5ac1b54efcE, symObjAddr: 0x2F3CC, symBinAddr: 0xAB9DC, symSize: 0x50 }
  - { offsetInCU: 0x4547B, offset: 0x9A0A5, size: 0x8, addend: 0x0, symName: __ZN3std7process7Command5spawn17ha01af356a5708a4aE, symObjAddr: 0x2F41C, symBinAddr: 0xABA2C, symSize: 0x78 }
  - { offsetInCU: 0x454AD, offset: 0x9A0D7, size: 0x8, addend: 0x0, symName: __ZN3std7process7Command6output17hb70cc61b230e09c0E, symObjAddr: 0x2F494, symBinAddr: 0xABAA4, symSize: 0x338 }
  - { offsetInCU: 0x45AB5, offset: 0x9A6DF, size: 0x8, addend: 0x0, symName: __ZN3std7process7Command6status17h8a5f095ec2a630a9E, symObjAddr: 0x2F7CC, symBinAddr: 0xABDDC, symSize: 0xB8 }
  - { offsetInCU: 0x45CAF, offset: 0x9A8D9, size: 0x8, addend: 0x0, symName: __ZN3std7process7Command11get_program17h0508553b24482d8eE, symObjAddr: 0x2F884, symBinAddr: 0xABE94, symSize: 0x1C }
  - { offsetInCU: 0x45CF8, offset: 0x9A922, size: 0x8, addend: 0x0, symName: __ZN3std7process7Command8get_args17h5556346164859780E, symObjAddr: 0x2F8A0, symBinAddr: 0xABEB0, symSize: 0x24 }
  - { offsetInCU: 0x45D9A, offset: 0x9A9C4, size: 0x8, addend: 0x0, symName: __ZN3std7process7Command8get_envs17hcc48b8f0a9093253E, symObjAddr: 0x2F8C4, symBinAddr: 0xABED4, symSize: 0x4C }
  - { offsetInCU: 0x45DF1, offset: 0x9AA1B, size: 0x8, addend: 0x0, symName: __ZN3std7process7Command15get_current_dir17h996f46d83a39a327E, symObjAddr: 0x2F910, symBinAddr: 0xABF20, symSize: 0x1C }
  - { offsetInCU: 0x45E2F, offset: 0x9AA59, size: 0x8, addend: 0x0, symName: '__ZN58_$LT$std..process..Command$u20$as$u20$core..fmt..Debug$GT$3fmt17h3fd94f710a40b149E', symObjAddr: 0x2F92C, symBinAddr: 0xABF3C, symSize: 0x10 }
  - { offsetInCU: 0x45E51, offset: 0x9AA7B, size: 0x8, addend: 0x0, symName: '__ZN84_$LT$std..process..CommandArgs$u20$as$u20$core..iter..traits..iterator..Iterator$GT$4next17he01ba879d8dbd79fE', symObjAddr: 0x2F93C, symBinAddr: 0xABF4C, symSize: 0x34 }
  - { offsetInCU: 0x45E70, offset: 0x9AA9A, size: 0x8, addend: 0x0, symName: '__ZN84_$LT$std..process..CommandArgs$u20$as$u20$core..iter..traits..iterator..Iterator$GT$4next17he01ba879d8dbd79fE', symObjAddr: 0x2F93C, symBinAddr: 0xABF4C, symSize: 0x34 }
  - { offsetInCU: 0x45E86, offset: 0x9AAB0, size: 0x8, addend: 0x0, symName: '__ZN84_$LT$std..process..CommandArgs$u20$as$u20$core..iter..traits..iterator..Iterator$GT$4next17he01ba879d8dbd79fE', symObjAddr: 0x2F93C, symBinAddr: 0xABF4C, symSize: 0x34 }
  - { offsetInCU: 0x45F21, offset: 0x9AB4B, size: 0x8, addend: 0x0, symName: '__ZN84_$LT$std..process..CommandArgs$u20$as$u20$core..iter..traits..iterator..Iterator$GT$9size_hint17h12bd212fccd4cb94E', symObjAddr: 0x2F970, symBinAddr: 0xABF80, symSize: 0x28 }
  - { offsetInCU: 0x45F9E, offset: 0x9ABC8, size: 0x8, addend: 0x0, symName: '__ZN95_$LT$std..process..CommandArgs$u20$as$u20$core..iter..traits..exact_size..ExactSizeIterator$GT$3len17h353af0cdc9dfbc79E', symObjAddr: 0x2F998, symBinAddr: 0xABFA8, symSize: 0x1C }
  - { offsetInCU: 0x46014, offset: 0x9AC3E, size: 0x8, addend: 0x0, symName: '__ZN95_$LT$std..process..CommandArgs$u20$as$u20$core..iter..traits..exact_size..ExactSizeIterator$GT$8is_empty17h23f382fc2ce89177E', symObjAddr: 0x2F9B4, symBinAddr: 0xABFC4, symSize: 0x1C }
  - { offsetInCU: 0x4607A, offset: 0x9ACA4, size: 0x8, addend: 0x0, symName: '__ZN57_$LT$std..process..Output$u20$as$u20$core..fmt..Debug$GT$3fmt17h0457563d4d81a4baE', symObjAddr: 0x2F9D0, symBinAddr: 0xABFE0, symSize: 0x10C }
  - { offsetInCU: 0x46125, offset: 0x9AD4F, size: 0x8, addend: 0x0, symName: '__ZN56_$LT$std..process..Stdio$u20$as$u20$core..fmt..Debug$GT$3fmt17hc286fd2efc5bdf3bE', symObjAddr: 0x2FADC, symBinAddr: 0xAC0EC, symSize: 0x38 }
  - { offsetInCU: 0x46147, offset: 0x9AD71, size: 0x8, addend: 0x0, symName: __ZN3std7process10ExitStatus7exit_ok17hfb55c1cbcb7c8095E, symObjAddr: 0x2FB14, symBinAddr: 0xAC124, symSize: 0x14 }
  - { offsetInCU: 0x46180, offset: 0x9ADAA, size: 0x8, addend: 0x0, symName: '__ZN63_$LT$std..process..ExitStatus$u20$as$u20$core..fmt..Display$GT$3fmt17ha2c4616112d692e2E', symObjAddr: 0x2FB28, symBinAddr: 0xAC138, symSize: 0x10 }
  - { offsetInCU: 0x461B0, offset: 0x9ADDA, size: 0x8, addend: 0x0, symName: __ZN3std7process15ExitStatusError4code17h0148e6210c31274bE, symObjAddr: 0x2FB38, symBinAddr: 0xAC148, symSize: 0x5C }
  - { offsetInCU: 0x462B4, offset: 0x9AEDE, size: 0x8, addend: 0x0, symName: __ZN3std7process15ExitStatusError12code_nonzero17h85881a2b9107042fE, symObjAddr: 0x2FB94, symBinAddr: 0xAC1A4, symSize: 0x54 }
  - { offsetInCU: 0x463B7, offset: 0x9AFE1, size: 0x8, addend: 0x0, symName: '__ZN68_$LT$std..process..ExitStatusError$u20$as$u20$core..fmt..Display$GT$3fmt17h86054efff967918eE', symObjAddr: 0x2FBE8, symBinAddr: 0xAC1F8, symSize: 0x58 }
  - { offsetInCU: 0x4642A, offset: 0x9B054, size: 0x8, addend: 0x0, symName: __ZN3std7process8ExitCode12exit_process17hadff521e287fcdc3E, symObjAddr: 0x2FC40, symBinAddr: 0xAC250, symSize: 0x10 }
  - { offsetInCU: 0x4647A, offset: 0x9B0A4, size: 0x8, addend: 0x0, symName: __ZN3std7process5Child4kill17h55197e82f72899cbE, symObjAddr: 0x2FC50, symBinAddr: 0xAC260, symSize: 0x4C }
  - { offsetInCU: 0x4652C, offset: 0x9B156, size: 0x8, addend: 0x0, symName: __ZN3std7process5Child4wait17h6d959664d5078ce7E, symObjAddr: 0x2FC9C, symBinAddr: 0xAC2AC, symSize: 0xF0 }
  - { offsetInCU: 0x4670B, offset: 0x9B335, size: 0x8, addend: 0x0, symName: __ZN3std7process5Child8try_wait17hd67687fdd004511cE, symObjAddr: 0x2FD8C, symBinAddr: 0xAC39C, symSize: 0xB0 }
  - { offsetInCU: 0x467D3, offset: 0x9B3FD, size: 0x8, addend: 0x0, symName: __ZN3std7process5Child16wait_with_output17h94ef31a246469394E, symObjAddr: 0x2FE3C, symBinAddr: 0xAC44C, symSize: 0x450 }
  - { offsetInCU: 0x47237, offset: 0x9BE61, size: 0x8, addend: 0x0, symName: __ZN3std7process4exit17hc54662661b3f9bf8E, symObjAddr: 0x3028C, symBinAddr: 0xAC89C, symSize: 0x1C }
  - { offsetInCU: 0x47252, offset: 0x9BE7C, size: 0x8, addend: 0x0, symName: __ZN3std7process5abort17h7c5a91725946537aE, symObjAddr: 0x302A8, symBinAddr: 0x1033B4, symSize: 0xC }
  - { offsetInCU: 0x4726D, offset: 0x9BE97, size: 0x8, addend: 0x0, symName: __ZN3std7process2id17he6f036ee67fb27b6E, symObjAddr: 0x302B4, symBinAddr: 0xAC8B8, symSize: 0x10 }
  - { offsetInCU: 0x472A5, offset: 0x9BECF, size: 0x8, addend: 0x0, symName: '__ZN61_$LT$std..process..ExitStatus$u20$as$u20$core..fmt..Debug$GT$3fmt17h9c249a9e121d1f26E', symObjAddr: 0x367B8, symBinAddr: 0xB22A4, symSize: 0x40 }
  - { offsetInCU: 0x4740B, offset: 0x9C035, size: 0x8, addend: 0x0, symName: __ZN3std3ffi6os_str8OsString17into_boxed_os_str17hb3cbf3668935a904E, symObjAddr: 0x1DEA0, symBinAddr: 0x9A640, symSize: 0x98 }
  - { offsetInCU: 0x475D9, offset: 0x9C203, size: 0x8, addend: 0x0, symName: __ZN3std3ffi6os_str5OsStr14into_os_string17h1a2113d21cd77163E, symObjAddr: 0x1DFB0, symBinAddr: 0x9A750, symSize: 0x0 }
  - { offsetInCU: 0x475F4, offset: 0x9C21E, size: 0x8, addend: 0x0, symName: __ZN3std3ffi6os_str5OsStr18to_ascii_lowercase17h5fe8ae74c19a3255E, symObjAddr: 0x1DFC8, symBinAddr: 0x9A768, symSize: 0x170 }
  - { offsetInCU: 0x47784, offset: 0x9C3AE, size: 0x8, addend: 0x0, symName: __ZN3std3ffi6os_str5OsStr18to_ascii_uppercase17h73ffe257c7f1b2f5E, symObjAddr: 0x1E138, symBinAddr: 0x9A8D8, symSize: 0x170 }
  - { offsetInCU: 0x479CA, offset: 0x9C5F4, size: 0x8, addend: 0x0, symName: '__ZN63_$LT$std..ffi..os_str..OsString$u20$as$u20$core..fmt..Write$GT$9write_str17hfdf102e76e5ec80aE', symObjAddr: 0x1DF38, symBinAddr: 0x9A6D8, symSize: 0x78 }
  - { offsetInCU: 0x47B29, offset: 0x9C753, size: 0x8, addend: 0x0, symName: '__ZN3std3ffi6os_str95_$LT$impl$u20$core..convert..TryFrom$LT$$RF$std..ffi..os_str..OsStr$GT$$u20$for$u20$$RF$str$GT$8try_from17hb6e24e24b99cba25E', symObjAddr: 0x1E2A8, symBinAddr: 0x9AA48, symSize: 0x0 }
  - { offsetInCU: 0x47B62, offset: 0x9C78C, size: 0x8, addend: 0x0, symName: '__ZN62_$LT$std..ffi..os_str..Display$u20$as$u20$core..fmt..Debug$GT$3fmt17h25647917c51145aaE', symObjAddr: 0x1E2B8, symBinAddr: 0x9AA58, symSize: 0x28 }
  - { offsetInCU: 0x47BE6, offset: 0x9C810, size: 0x8, addend: 0x0, symName: '__ZN64_$LT$std..ffi..os_str..Display$u20$as$u20$core..fmt..Display$GT$3fmt17ha614aaecf8a5a72fE', symObjAddr: 0x1E2E0, symBinAddr: 0x9AA80, symSize: 0x1C }
  - { offsetInCU: 0x47EBD, offset: 0x9CAE7, size: 0x8, addend: 0x0, symName: __ZN3std4path4Path11is_absolute17h8a0af19acd068de2E, symObjAddr: 0x2E120, symBinAddr: 0xAA730, symSize: 0x2C }
  - { offsetInCU: 0x47F2C, offset: 0x9CB56, size: 0x8, addend: 0x0, symName: __ZN3std4path4Path6parent17h146f746eac008b16E, symObjAddr: 0x2E14C, symBinAddr: 0xAA75C, symSize: 0x8C }
  - { offsetInCU: 0x47F44, offset: 0x9CB6E, size: 0x8, addend: 0x0, symName: __ZN3std4path4Path6parent17h146f746eac008b16E, symObjAddr: 0x2E14C, symBinAddr: 0xAA75C, symSize: 0x8C }
  - { offsetInCU: 0x47F5A, offset: 0x9CB84, size: 0x8, addend: 0x0, symName: __ZN3std4path4Path6parent17h146f746eac008b16E, symObjAddr: 0x2E14C, symBinAddr: 0xAA75C, symSize: 0x8C }
  - { offsetInCU: 0x47FB2, offset: 0x9CBDC, size: 0x8, addend: 0x0, symName: __ZN3std4path4Path9file_name17hb154353964ed42b2E, symObjAddr: 0x2E1D8, symBinAddr: 0xAA7E8, symSize: 0x64 }
  - { offsetInCU: 0x47FCA, offset: 0x9CBF4, size: 0x8, addend: 0x0, symName: __ZN3std4path4Path9file_name17hb154353964ed42b2E, symObjAddr: 0x2E1D8, symBinAddr: 0xAA7E8, symSize: 0x64 }
  - { offsetInCU: 0x47FE0, offset: 0x9CC0A, size: 0x8, addend: 0x0, symName: __ZN3std4path4Path9file_name17hb154353964ed42b2E, symObjAddr: 0x2E1D8, symBinAddr: 0xAA7E8, symSize: 0x64 }
  - { offsetInCU: 0x48021, offset: 0x9CC4B, size: 0x8, addend: 0x0, symName: __ZN3std4path4Path13_strip_prefix17h45fcb6c252580ab3E, symObjAddr: 0x2E23C, symBinAddr: 0xAA84C, symSize: 0x1E4 }
  - { offsetInCU: 0x48153, offset: 0x9CD7D, size: 0x8, addend: 0x0, symName: __ZN3std4path4Path12_starts_with17h72165d9d720657e0E, symObjAddr: 0x2E420, symBinAddr: 0xAAA30, symSize: 0x160 }
  - { offsetInCU: 0x4826E, offset: 0x9CE98, size: 0x8, addend: 0x0, symName: __ZN3std4path4Path10_ends_with17he570e38188133e56E, symObjAddr: 0x2E580, symBinAddr: 0xAAB90, symSize: 0x160 }
  - { offsetInCU: 0x483F0, offset: 0x9D01A, size: 0x8, addend: 0x0, symName: __ZN3std4path4Path9file_stem17h56170ef8a215ddf3E, symObjAddr: 0x2E6E0, symBinAddr: 0xAACF0, symSize: 0xF0 }
  - { offsetInCU: 0x48408, offset: 0x9D032, size: 0x8, addend: 0x0, symName: __ZN3std4path4Path9file_stem17h56170ef8a215ddf3E, symObjAddr: 0x2E6E0, symBinAddr: 0xAACF0, symSize: 0xF0 }
  - { offsetInCU: 0x4841E, offset: 0x9D048, size: 0x8, addend: 0x0, symName: __ZN3std4path4Path9file_stem17h56170ef8a215ddf3E, symObjAddr: 0x2E6E0, symBinAddr: 0xAACF0, symSize: 0xF0 }
  - { offsetInCU: 0x48434, offset: 0x9D05E, size: 0x8, addend: 0x0, symName: __ZN3std4path4Path9file_stem17h56170ef8a215ddf3E, symObjAddr: 0x2E6E0, symBinAddr: 0xAACF0, symSize: 0xF0 }
  - { offsetInCU: 0x48675, offset: 0x9D29F, size: 0x8, addend: 0x0, symName: __ZN3std4path4Path11file_prefix17h3ff0ad3370373a64E, symObjAddr: 0x2E7D0, symBinAddr: 0xAADE0, symSize: 0x12C }
  - { offsetInCU: 0x4886F, offset: 0x9D499, size: 0x8, addend: 0x0, symName: __ZN3std4path4Path9extension17hb86e769c70ab0d3cE, symObjAddr: 0x2E8FC, symBinAddr: 0xAAF0C, symSize: 0xC0 }
  - { offsetInCU: 0x48887, offset: 0x9D4B1, size: 0x8, addend: 0x0, symName: __ZN3std4path4Path9extension17hb86e769c70ab0d3cE, symObjAddr: 0x2E8FC, symBinAddr: 0xAAF0C, symSize: 0xC0 }
  - { offsetInCU: 0x4889D, offset: 0x9D4C7, size: 0x8, addend: 0x0, symName: __ZN3std4path4Path9extension17hb86e769c70ab0d3cE, symObjAddr: 0x2E8FC, symBinAddr: 0xAAF0C, symSize: 0xC0 }
  - { offsetInCU: 0x488B3, offset: 0x9D4DD, size: 0x8, addend: 0x0, symName: __ZN3std4path4Path9extension17hb86e769c70ab0d3cE, symObjAddr: 0x2E8FC, symBinAddr: 0xAAF0C, symSize: 0xC0 }
  - { offsetInCU: 0x48AAE, offset: 0x9D6D8, size: 0x8, addend: 0x0, symName: __ZN3std4path4Path5_join17h4c4f54b997a56fc2E, symObjAddr: 0x2E9BC, symBinAddr: 0xAAFCC, symSize: 0x18C }
  - { offsetInCU: 0x48EEA, offset: 0x9DB14, size: 0x8, addend: 0x0, symName: __ZN3std4path4Path15_with_file_name17hfeed19cc7878d188E, symObjAddr: 0x2EB48, symBinAddr: 0xAB158, symSize: 0xE8 }
  - { offsetInCU: 0x4910B, offset: 0x9DD35, size: 0x8, addend: 0x0, symName: __ZN3std4path4Path15_with_extension17h006b61ea9c8eb879E, symObjAddr: 0x2EC30, symBinAddr: 0xAB240, symSize: 0x1F8 }
  - { offsetInCU: 0x4956E, offset: 0x9E198, size: 0x8, addend: 0x0, symName: __ZN3std4path4Path10components17h518e3e16bfaa34a2E, symObjAddr: 0x2EE28, symBinAddr: 0xAB438, symSize: 0x40 }
  - { offsetInCU: 0x495B0, offset: 0x9E1DA, size: 0x8, addend: 0x0, symName: __ZN3std4path4Path7is_file17h5ac1de3868d87a23E, symObjAddr: 0x2EE68, symBinAddr: 0xAB478, symSize: 0x64 }
  - { offsetInCU: 0x49691, offset: 0x9E2BB, size: 0x8, addend: 0x0, symName: __ZN3std4path4Path6is_dir17h4d4093ff26f417caE, symObjAddr: 0x2EECC, symBinAddr: 0xAB4DC, symSize: 0x64 }
  - { offsetInCU: 0x4976B, offset: 0x9E395, size: 0x8, addend: 0x0, symName: __ZN3std4path4Path10is_symlink17hb410badc5e2e69d8E, symObjAddr: 0x2EF30, symBinAddr: 0xAB540, symSize: 0x150 }
  - { offsetInCU: 0x49B74, offset: 0x9E79E, size: 0x8, addend: 0x0, symName: '__ZN58_$LT$std..path..Components$u20$as$u20$core..fmt..Debug$GT$3fmt17h05b5c5c84837f961E', symObjAddr: 0x2C674, symBinAddr: 0xA8C84, symSize: 0x64 }
  - { offsetInCU: 0x49B9B, offset: 0x9E7C5, size: 0x8, addend: 0x0, symName: '__ZN112_$LT$$LT$std..path..Components$u20$as$u20$core..fmt..Debug$GT$..fmt..DebugHelper$u20$as$u20$core..fmt..Debug$GT$3fmt17h4bb6f0057a933858E', symObjAddr: 0x2C6D8, symBinAddr: 0xA8CE8, symSize: 0xD4 }
  - { offsetInCU: 0x49C75, offset: 0x9E89F, size: 0x8, addend: 0x0, symName: __ZN3std4path10Components15len_before_body17h8f5124ceb60e49eeE, symObjAddr: 0x2C7AC, symBinAddr: 0xA8DBC, symSize: 0x190 }
  - { offsetInCU: 0x49C8D, offset: 0x9E8B7, size: 0x8, addend: 0x0, symName: __ZN3std4path10Components15len_before_body17h8f5124ceb60e49eeE, symObjAddr: 0x2C7AC, symBinAddr: 0xA8DBC, symSize: 0x190 }
  - { offsetInCU: 0x49CA3, offset: 0x9E8CD, size: 0x8, addend: 0x0, symName: __ZN3std4path10Components15len_before_body17h8f5124ceb60e49eeE, symObjAddr: 0x2C7AC, symBinAddr: 0xA8DBC, symSize: 0x190 }
  - { offsetInCU: 0x49E8B, offset: 0x9EAB5, size: 0x8, addend: 0x0, symName: __ZN3std4path10Components7as_path17h7b200ce975f5dfd2E, symObjAddr: 0x2C93C, symBinAddr: 0xA8F4C, symSize: 0x538 }
  - { offsetInCU: 0x4A376, offset: 0x9EFA0, size: 0x8, addend: 0x0, symName: __ZN3std4path10Components25parse_next_component_back17h91a46d0fede2ef33E, symObjAddr: 0x2CE74, symBinAddr: 0xA9484, symSize: 0x120 }
  - { offsetInCU: 0x4A50C, offset: 0x9F136, size: 0x8, addend: 0x0, symName: '__ZN52_$LT$std..path..Iter$u20$as$u20$core..fmt..Debug$GT$3fmt17h0214ea1197df6ffbE', symObjAddr: 0x2CF94, symBinAddr: 0xA95A4, symSize: 0x64 }
  - { offsetInCU: 0x4A54A, offset: 0x9F174, size: 0x8, addend: 0x0, symName: '__ZN106_$LT$$LT$std..path..Iter$u20$as$u20$core..fmt..Debug$GT$..fmt..DebugHelper$u20$as$u20$core..fmt..Debug$GT$3fmt17h58c12e790b7ba137E', symObjAddr: 0x2CFF8, symBinAddr: 0xA9608, symSize: 0x13C }
  - { offsetInCU: 0x4A64D, offset: 0x9F277, size: 0x8, addend: 0x0, symName: '__ZN80_$LT$std..path..Components$u20$as$u20$core..iter..traits..iterator..Iterator$GT$4next17he590d41f8ee68659E', symObjAddr: 0x2D134, symBinAddr: 0xA9744, symSize: 0x380 }
  - { offsetInCU: 0x4A929, offset: 0x9F553, size: 0x8, addend: 0x0, symName: '__ZN95_$LT$std..path..Components$u20$as$u20$core..iter..traits..double_ended..DoubleEndedIterator$GT$9next_back17hc8f5877df4780c72E', symObjAddr: 0x2D4B4, symBinAddr: 0xA9AC4, symSize: 0x324 }
  - { offsetInCU: 0x4AAC9, offset: 0x9F6F3, size: 0x8, addend: 0x0, symName: __ZN3std4path18compare_components17h0b6a11def26ea147E, symObjAddr: 0x2D7D8, symBinAddr: 0xA9DE8, symSize: 0x308 }
  - { offsetInCU: 0x4AEAD, offset: 0x9FAD7, size: 0x8, addend: 0x0, symName: __ZN3std4path7PathBuf5_push17h29c9ef8fb54ffac6E, symObjAddr: 0x2DAE0, symBinAddr: 0xAA0F0, symSize: 0xF4 }
  - { offsetInCU: 0x4B1C7, offset: 0x9FDF1, size: 0x8, addend: 0x0, symName: __ZN3std4path7PathBuf3pop17hb171277c72d1b089E, symObjAddr: 0x2DBD4, symBinAddr: 0xAA1E4, symSize: 0xB0 }
  - { offsetInCU: 0x4B2FD, offset: 0x9FF27, size: 0x8, addend: 0x0, symName: __ZN3std4path7PathBuf14_set_file_name17hc69495715d58f2faE, symObjAddr: 0x2DC84, symBinAddr: 0xAA294, symSize: 0x1C0 }
  - { offsetInCU: 0x4B705, offset: 0xA032F, size: 0x8, addend: 0x0, symName: __ZN3std4path7PathBuf14_set_extension17h4f7727811e316e96E, symObjAddr: 0x2DE44, symBinAddr: 0xAA454, symSize: 0x234 }
  - { offsetInCU: 0x4BD42, offset: 0xA096C, size: 0x8, addend: 0x0, symName: '__ZN3std4path117_$LT$impl$u20$core..convert..From$LT$$RF$std..path..Path$GT$$u20$for$u20$alloc..boxed..Box$LT$std..path..Path$GT$$GT$4from17h0145c0a5160c89d4E', symObjAddr: 0x2E078, symBinAddr: 0xAA688, symSize: 0x80 }
  - { offsetInCU: 0x4BE5F, offset: 0xA0A89, size: 0x8, addend: 0x0, symName: '__ZN52_$LT$std..path..Path$u20$as$u20$core..fmt..Debug$GT$3fmt17hfc7bcb947759d297E', symObjAddr: 0x2F080, symBinAddr: 0xAB690, symSize: 0x0 }
  - { offsetInCU: 0x4BEBE, offset: 0xA0AE8, size: 0x8, addend: 0x0, symName: '__ZN55_$LT$std..path..PathBuf$u20$as$u20$core..fmt..Debug$GT$3fmt17h08f4236c8a75cc11E', symObjAddr: 0x2E0F8, symBinAddr: 0xAA708, symSize: 0x0 }
  - { offsetInCU: 0x4BFC0, offset: 0xA0BEA, size: 0x8, addend: 0x0, symName: '__ZN55_$LT$std..path..Display$u20$as$u20$core..fmt..Debug$GT$3fmt17h7b070ab56c27247cE', symObjAddr: 0x2F0A8, symBinAddr: 0xAB6B8, symSize: 0x28 }
  - { offsetInCU: 0x4C054, offset: 0xA0C7E, size: 0x8, addend: 0x0, symName: '__ZN57_$LT$std..path..Display$u20$as$u20$core..fmt..Display$GT$3fmt17h33adcddd5e9b7114E', symObjAddr: 0x2F0D0, symBinAddr: 0xAB6E0, symSize: 0x1C }
  - { offsetInCU: 0x4C094, offset: 0xA0CBE, size: 0x8, addend: 0x0, symName: '__ZN66_$LT$std..path..StripPrefixError$u20$as$u20$core..fmt..Display$GT$3fmt17hfcb52b015c9abe23E', symObjAddr: 0x2F0EC, symBinAddr: 0xAB6FC, symSize: 0x20 }
  - { offsetInCU: 0x4C0DF, offset: 0xA0D09, size: 0x8, addend: 0x0, symName: '__ZN61_$LT$std..path..Component$u20$as$u20$core..cmp..PartialEq$GT$2eq17h3dc667e15daa2de5E', symObjAddr: 0x36598, symBinAddr: 0xB2084, symSize: 0x14C }
  - { offsetInCU: 0x4C1FA, offset: 0xA0E24, size: 0x8, addend: 0x0, symName: '__ZN57_$LT$std..path..Component$u20$as$u20$core..fmt..Debug$GT$3fmt17h8d44df0ff2ba8854E', symObjAddr: 0x366E4, symBinAddr: 0xB21D0, symSize: 0xD4 }
  - { offsetInCU: 0x4C298, offset: 0xA0EC2, size: 0x8, addend: 0x0, symName: '__ZN80_$LT$std..io..Write..write_fmt..Adapter$LT$T$GT$$u20$as$u20$core..fmt..Write$GT$9write_str17h327516f92223003eE', symObjAddr: 0x282E0, symBinAddr: 0xA48F0, symSize: 0xFC }
  - { offsetInCU: 0x4C404, offset: 0xA102E, size: 0x8, addend: 0x0, symName: '__ZN80_$LT$std..io..Write..write_fmt..Adapter$LT$T$GT$$u20$as$u20$core..fmt..Write$GT$9write_str17h656366d8725f9976E', symObjAddr: 0x283DC, symBinAddr: 0xA49EC, symSize: 0xFC }
  - { offsetInCU: 0x4C570, offset: 0xA119A, size: 0x8, addend: 0x0, symName: '__ZN80_$LT$std..io..Write..write_fmt..Adapter$LT$T$GT$$u20$as$u20$core..fmt..Write$GT$9write_str17h8a4ca3a91b807501E', symObjAddr: 0x284D8, symBinAddr: 0xA4AE8, symSize: 0x78 }
  - { offsetInCU: 0x4C690, offset: 0xA12BA, size: 0x8, addend: 0x0, symName: '__ZN80_$LT$std..io..Write..write_fmt..Adapter$LT$T$GT$$u20$as$u20$core..fmt..Write$GT$9write_str17hc676d1e693de0732E', symObjAddr: 0x28550, symBinAddr: 0xA4B60, symSize: 0x50 }
  - { offsetInCU: 0x4C6BB, offset: 0xA12E5, size: 0x8, addend: 0x0, symName: '__ZN80_$LT$std..io..Write..write_fmt..Adapter$LT$T$GT$$u20$as$u20$core..fmt..Write$GT$9write_str17hecf3ce8a35071115E', symObjAddr: 0x285A0, symBinAddr: 0xA4BB0, symSize: 0x94 }
  - { offsetInCU: 0x4C9B3, offset: 0xA15DD, size: 0x8, addend: 0x0, symName: __ZN3std2io5Write9write_all17h345cc46d88e2c591E, symObjAddr: 0x27C08, symBinAddr: 0xA4218, symSize: 0xD8 }
  - { offsetInCU: 0x4CAF3, offset: 0xA171D, size: 0x8, addend: 0x0, symName: __ZN3std2io5Write18write_all_vectored17h2cc12402d30104f4E, symObjAddr: 0x27CE0, symBinAddr: 0xA42F0, symSize: 0x228 }
  - { offsetInCU: 0x4CE72, offset: 0xA1A9C, size: 0x8, addend: 0x0, symName: __ZN3std2io5Write18write_all_vectored17hcfd21b7864a2b2f0E, symObjAddr: 0x27F08, symBinAddr: 0xA4518, symSize: 0x2C8 }
  - { offsetInCU: 0x4D369, offset: 0xA1F93, size: 0x8, addend: 0x0, symName: __ZN3std2io5Write9write_fmt17h4f7618a5dc430589E, symObjAddr: 0x281D0, symBinAddr: 0xA47E0, symSize: 0x88 }
  - { offsetInCU: 0x4D3D6, offset: 0xA2000, size: 0x8, addend: 0x0, symName: __ZN3std2io5Write9write_fmt17hd112a8644700840bE, symObjAddr: 0x28258, symBinAddr: 0xA4868, symSize: 0x88 }
  - { offsetInCU: 0x4D488, offset: 0xA20B2, size: 0x8, addend: 0x0, symName: '__ZN61_$LT$std..io..stdio..StderrLock$u20$as$u20$std..io..Write$GT$5write17h0fe3f11581c8f59cE', symObjAddr: 0x264FC, symBinAddr: 0xA2B0C, symSize: 0xC0 }
  - { offsetInCU: 0x4D7F0, offset: 0xA241A, size: 0x8, addend: 0x0, symName: '__ZN61_$LT$std..io..stdio..StderrLock$u20$as$u20$std..io..Write$GT$14write_vectored17h6f3d6a7ebeda5e25E', symObjAddr: 0x265BC, symBinAddr: 0xA2BCC, symSize: 0x130 }
  - { offsetInCU: 0x4DBFF, offset: 0xA2829, size: 0x8, addend: 0x0, symName: '__ZN61_$LT$std..io..stdio..StderrLock$u20$as$u20$std..io..Write$GT$5flush17h05097e5e075ad79dE', symObjAddr: 0x266EC, symBinAddr: 0xA2CFC, symSize: 0x2C }
  - { offsetInCU: 0x4DC17, offset: 0xA2841, size: 0x8, addend: 0x0, symName: '__ZN61_$LT$std..io..stdio..StderrLock$u20$as$u20$std..io..Write$GT$5flush17h05097e5e075ad79dE', symObjAddr: 0x266EC, symBinAddr: 0xA2CFC, symSize: 0x2C }
  - { offsetInCU: 0x4DD1D, offset: 0xA2947, size: 0x8, addend: 0x0, symName: '__ZN61_$LT$std..io..stdio..StderrLock$u20$as$u20$std..io..Write$GT$9write_all17hcc72bc456f3f5684E', symObjAddr: 0x26718, symBinAddr: 0xA2D28, symSize: 0x58 }
  - { offsetInCU: 0x4DF62, offset: 0xA2B8C, size: 0x8, addend: 0x0, symName: '__ZN61_$LT$std..io..stdio..StderrLock$u20$as$u20$std..io..Write$GT$18write_all_vectored17h1293aaa0d7dbb7ccE', symObjAddr: 0x26770, symBinAddr: 0xA2D80, symSize: 0x90 }
  - { offsetInCU: 0x4E2AE, offset: 0xA2ED8, size: 0x8, addend: 0x0, symName: '__ZN58_$LT$std..io..stdio..StdinRaw$u20$as$u20$std..io..Read$GT$4read17h42f85836981c5a35E', symObjAddr: 0x22618, symBinAddr: 0x9EC28, symSize: 0x74 }
  - { offsetInCU: 0x4E3CD, offset: 0xA2FF7, size: 0x8, addend: 0x0, symName: '__ZN58_$LT$std..io..stdio..StdinRaw$u20$as$u20$std..io..Read$GT$8read_buf17h6130e6897f57f04aE', symObjAddr: 0x2268C, symBinAddr: 0x9EC9C, symSize: 0xB4 }
  - { offsetInCU: 0x4E59C, offset: 0xA31C6, size: 0x8, addend: 0x0, symName: '__ZN58_$LT$std..io..stdio..StdinRaw$u20$as$u20$std..io..Read$GT$13read_vectored17h245548d5d0f061bbE', symObjAddr: 0x22740, symBinAddr: 0x9ED50, symSize: 0x74 }
  - { offsetInCU: 0x4E6BB, offset: 0xA32E5, size: 0x8, addend: 0x0, symName: '__ZN58_$LT$std..io..stdio..StdinRaw$u20$as$u20$std..io..Read$GT$11read_to_end17h8fb30f6f68d9f51aE', symObjAddr: 0x227B4, symBinAddr: 0x9EDC4, symSize: 0x70 }
  - { offsetInCU: 0x4E768, offset: 0xA3392, size: 0x8, addend: 0x0, symName: '__ZN58_$LT$std..io..stdio..StdinRaw$u20$as$u20$std..io..Read$GT$14read_to_string17ha680c8d1bf2ec41aE', symObjAddr: 0x22824, symBinAddr: 0x9EE34, symSize: 0x128 }
  - { offsetInCU: 0x4E9DC, offset: 0xA3606, size: 0x8, addend: 0x0, symName: '__ZN60_$LT$std..io..stdio..StdoutRaw$u20$as$u20$std..io..Write$GT$5write17h795679bc436dd823E', symObjAddr: 0x2294C, symBinAddr: 0x9EF5C, symSize: 0x84 }
  - { offsetInCU: 0x4EAFD, offset: 0xA3727, size: 0x8, addend: 0x0, symName: '__ZN60_$LT$std..io..stdio..StdoutRaw$u20$as$u20$std..io..Write$GT$14write_vectored17hf88413b1ae1f8094E', symObjAddr: 0x229D0, symBinAddr: 0x9EFE0, symSize: 0xF4 }
  - { offsetInCU: 0x4ECBE, offset: 0xA38E8, size: 0x8, addend: 0x0, symName: '__ZN60_$LT$std..io..stdio..StdoutRaw$u20$as$u20$std..io..Write$GT$9write_all17h1d35efdc2f1bf646E', symObjAddr: 0x22AC4, symBinAddr: 0x9F0D4, symSize: 0xF4 }
  - { offsetInCU: 0x4EE95, offset: 0xA3ABF, size: 0x8, addend: 0x0, symName: '__ZN60_$LT$std..io..stdio..StdoutRaw$u20$as$u20$std..io..Write$GT$18write_all_vectored17hac230af7d3d17485E', symObjAddr: 0x22BB8, symBinAddr: 0x9F1C8, symSize: 0x234 }
  - { offsetInCU: 0x4F2A4, offset: 0xA3ECE, size: 0x8, addend: 0x0, symName: '__ZN60_$LT$std..io..stdio..StdoutRaw$u20$as$u20$std..io..Write$GT$9write_fmt17hd9931496e9f69c0aE', symObjAddr: 0x22DEC, symBinAddr: 0x9F3FC, symSize: 0xA8 }
  - { offsetInCU: 0x4F3C4, offset: 0xA3FEE, size: 0x8, addend: 0x0, symName: '__ZN60_$LT$std..io..stdio..StderrRaw$u20$as$u20$std..io..Write$GT$5write17h340efb776bda3395E', symObjAddr: 0x22E94, symBinAddr: 0x9F4A4, symSize: 0x84 }
  - { offsetInCU: 0x4F4F9, offset: 0xA4123, size: 0x8, addend: 0x0, symName: '__ZN60_$LT$std..io..stdio..StderrRaw$u20$as$u20$std..io..Write$GT$14write_vectored17h1a2c513b2052585aE', symObjAddr: 0x22F18, symBinAddr: 0x9F528, symSize: 0xF4 }
  - { offsetInCU: 0x4F6BA, offset: 0xA42E4, size: 0x8, addend: 0x0, symName: '__ZN60_$LT$std..io..stdio..StderrRaw$u20$as$u20$std..io..Write$GT$5flush17h93f6a23fb9cb6dcbE', symObjAddr: 0x2300C, symBinAddr: 0x9F61C, symSize: 0x0 }
  - { offsetInCU: 0x4F6D4, offset: 0xA42FE, size: 0x8, addend: 0x0, symName: '__ZN60_$LT$std..io..stdio..StderrRaw$u20$as$u20$std..io..Write$GT$9write_all17ha348068228c723bcE', symObjAddr: 0x23020, symBinAddr: 0x9F630, symSize: 0xF4 }
  - { offsetInCU: 0x4F8AB, offset: 0xA44D5, size: 0x8, addend: 0x0, symName: '__ZN60_$LT$std..io..stdio..StderrRaw$u20$as$u20$std..io..Write$GT$18write_all_vectored17ha43e40932fc78e4aE', symObjAddr: 0x23114, symBinAddr: 0x9F724, symSize: 0x4C }
  - { offsetInCU: 0x4F943, offset: 0xA456D, size: 0x8, addend: 0x0, symName: '__ZN60_$LT$std..io..stdio..StderrRaw$u20$as$u20$std..io..Write$GT$9write_fmt17h418f1380e495b70dE', symObjAddr: 0x23160, symBinAddr: 0x9F770, symSize: 0xA8 }
  - { offsetInCU: 0x4FA84, offset: 0xA46AE, size: 0x8, addend: 0x0, symName: __ZN3std2io5stdio5stdin17h60d24f545eb315b2E, symObjAddr: 0x23208, symBinAddr: 0x9F818, symSize: 0x3C }
  - { offsetInCU: 0x4FABE, offset: 0xA46E8, size: 0x8, addend: 0x0, symName: __ZN3std2io5stdio5stdin17h60d24f545eb315b2E, symObjAddr: 0x23208, symBinAddr: 0x9F818, symSize: 0x3C }
  - { offsetInCU: 0x4FAD4, offset: 0xA46FE, size: 0x8, addend: 0x0, symName: __ZN3std2io5stdio5stdin17h60d24f545eb315b2E, symObjAddr: 0x23208, symBinAddr: 0x9F818, symSize: 0x3C }
  - { offsetInCU: 0x4FAE9, offset: 0xA4713, size: 0x8, addend: 0x0, symName: __ZN3std2io5stdio5stdin17h60d24f545eb315b2E, symObjAddr: 0x23208, symBinAddr: 0x9F818, symSize: 0x3C }
  - { offsetInCU: 0x4FAFF, offset: 0xA4729, size: 0x8, addend: 0x0, symName: __ZN3std2io5stdio5stdin17h60d24f545eb315b2E, symObjAddr: 0x23208, symBinAddr: 0x9F818, symSize: 0x3C }
  - { offsetInCU: 0x4FB14, offset: 0xA473E, size: 0x8, addend: 0x0, symName: __ZN3std2io5stdio5stdin17h60d24f545eb315b2E, symObjAddr: 0x23208, symBinAddr: 0x9F818, symSize: 0x3C }
  - { offsetInCU: 0x4FB29, offset: 0xA4753, size: 0x8, addend: 0x0, symName: __ZN3std2io5stdio5stdin17h60d24f545eb315b2E, symObjAddr: 0x23208, symBinAddr: 0x9F818, symSize: 0x3C }
  - { offsetInCU: 0x4FB49, offset: 0xA4773, size: 0x8, addend: 0x0, symName: __ZN3std2io5stdio5Stdin4lock17h26e0cd2620eb16b8E, symObjAddr: 0x23244, symBinAddr: 0x9F854, symSize: 0x68 }
  - { offsetInCU: 0x4FC99, offset: 0xA48C3, size: 0x8, addend: 0x0, symName: __ZN3std2io5stdio5Stdin9read_line17h1d9da53f1b6f36e5E, symObjAddr: 0x232AC, symBinAddr: 0x9F8BC, symSize: 0xFC }
  - { offsetInCU: 0x4FF17, offset: 0xA4B41, size: 0x8, addend: 0x0, symName: __ZN3std2io5stdio5Stdin5lines17ha9bbeb82e14fc423E, symObjAddr: 0x233A8, symBinAddr: 0x9F9B8, symSize: 0x68 }
  - { offsetInCU: 0x50076, offset: 0xA4CA0, size: 0x8, addend: 0x0, symName: '__ZN58_$LT$std..io..stdio..Stdin$u20$as$u20$core..fmt..Debug$GT$3fmt17hc14512136aa3965eE', symObjAddr: 0x23410, symBinAddr: 0x9FA20, symSize: 0x38 }
  - { offsetInCU: 0x500C2, offset: 0xA4CEC, size: 0x8, addend: 0x0, symName: '__ZN59_$LT$std..io..stdio..StdinLock$u20$as$u20$std..io..Read$GT$4read17h942fd358512145b2E', symObjAddr: 0x241AC, symBinAddr: 0xA07BC, symSize: 0x18 }
  - { offsetInCU: 0x50104, offset: 0xA4D2E, size: 0x8, addend: 0x0, symName: '__ZN59_$LT$std..io..stdio..StdinLock$u20$as$u20$std..io..Read$GT$8read_buf17hca31ea4f19f5b867E', symObjAddr: 0x241C4, symBinAddr: 0xA07D4, symSize: 0x18 }
  - { offsetInCU: 0x50146, offset: 0xA4D70, size: 0x8, addend: 0x0, symName: '__ZN59_$LT$std..io..stdio..StdinLock$u20$as$u20$std..io..Read$GT$13read_vectored17h5847d0d01edc26b1E', symObjAddr: 0x241DC, symBinAddr: 0xA07EC, symSize: 0x248 }
  - { offsetInCU: 0x506B9, offset: 0xA52E3, size: 0x8, addend: 0x0, symName: '__ZN59_$LT$std..io..stdio..StdinLock$u20$as$u20$std..io..Read$GT$11read_to_end17hebd0a85c4b7bbb0fE', symObjAddr: 0x24424, symBinAddr: 0xA0A34, symSize: 0x18 }
  - { offsetInCU: 0x506FB, offset: 0xA5325, size: 0x8, addend: 0x0, symName: '__ZN59_$LT$std..io..stdio..StdinLock$u20$as$u20$std..io..Read$GT$14read_to_string17h33afb88a88d80479E', symObjAddr: 0x2443C, symBinAddr: 0xA0A4C, symSize: 0x1A8 }
  - { offsetInCU: 0x50BA7, offset: 0xA57D1, size: 0x8, addend: 0x0, symName: '__ZN59_$LT$std..io..stdio..StdinLock$u20$as$u20$std..io..Read$GT$10read_exact17hdde55e1be850e831E', symObjAddr: 0x245E4, symBinAddr: 0xA0BF4, symSize: 0x128 }
  - { offsetInCU: 0x50D68, offset: 0xA5992, size: 0x8, addend: 0x0, symName: '__ZN59_$LT$std..io..stdio..StdinLock$u20$as$u20$std..io..Read$GT$14read_buf_exact17hd6b71c1574965e1fE', symObjAddr: 0x2470C, symBinAddr: 0xA0D1C, symSize: 0x15C }
  - { offsetInCU: 0x51016, offset: 0xA5C40, size: 0x8, addend: 0x0, symName: '__ZN55_$LT$std..io..stdio..Stdin$u20$as$u20$std..io..Read$GT$4read17h3359052492ea27a9E', symObjAddr: 0x23448, symBinAddr: 0x9FA58, symSize: 0xF4 }
  - { offsetInCU: 0x512D8, offset: 0xA5F02, size: 0x8, addend: 0x0, symName: '__ZN55_$LT$std..io..stdio..Stdin$u20$as$u20$std..io..Read$GT$8read_buf17hfd7fd795ad60dc02E', symObjAddr: 0x2353C, symBinAddr: 0x9FB4C, symSize: 0xDC }
  - { offsetInCU: 0x5159A, offset: 0xA61C4, size: 0x8, addend: 0x0, symName: '__ZN55_$LT$std..io..stdio..Stdin$u20$as$u20$std..io..Read$GT$13read_vectored17hc71acf27cd4c1aeaE', symObjAddr: 0x23618, symBinAddr: 0x9FC28, symSize: 0x104 }
  - { offsetInCU: 0x51818, offset: 0xA6442, size: 0x8, addend: 0x0, symName: '__ZN55_$LT$std..io..stdio..Stdin$u20$as$u20$std..io..Read$GT$11read_to_end17h3601b75a4326acdaE', symObjAddr: 0x2371C, symBinAddr: 0x9FD2C, symSize: 0xEC }
  - { offsetInCU: 0x51ADA, offset: 0xA6704, size: 0x8, addend: 0x0, symName: '__ZN55_$LT$std..io..stdio..Stdin$u20$as$u20$std..io..Read$GT$14read_to_string17h5bbacb494e09736fE', symObjAddr: 0x23808, symBinAddr: 0x9FE18, symSize: 0xFC }
  - { offsetInCU: 0x51D58, offset: 0xA6982, size: 0x8, addend: 0x0, symName: '__ZN55_$LT$std..io..stdio..Stdin$u20$as$u20$std..io..Read$GT$10read_exact17h7f86cb04056e7dd7E', symObjAddr: 0x23904, symBinAddr: 0x9FF14, symSize: 0xFC }
  - { offsetInCU: 0x51FD6, offset: 0xA6C00, size: 0x8, addend: 0x0, symName: '__ZN55_$LT$std..io..stdio..Stdin$u20$as$u20$std..io..Read$GT$14read_buf_exact17hbc7e6b4b629563a0E', symObjAddr: 0x23A00, symBinAddr: 0xA0010, symSize: 0xEC }
  - { offsetInCU: 0x5225B, offset: 0xA6E85, size: 0x8, addend: 0x0, symName: '__ZN59_$LT$$RF$std..io..stdio..Stdin$u20$as$u20$std..io..Read$GT$4read17he2befc4aee251409E', symObjAddr: 0x23AEC, symBinAddr: 0xA00FC, symSize: 0xF8 }
  - { offsetInCU: 0x5251D, offset: 0xA7147, size: 0x8, addend: 0x0, symName: '__ZN59_$LT$$RF$std..io..stdio..Stdin$u20$as$u20$std..io..Read$GT$8read_buf17hb0c718fbdb860352E', symObjAddr: 0x23BE4, symBinAddr: 0xA01F4, symSize: 0xE0 }
  - { offsetInCU: 0x527DF, offset: 0xA7409, size: 0x8, addend: 0x0, symName: '__ZN59_$LT$$RF$std..io..stdio..Stdin$u20$as$u20$std..io..Read$GT$13read_vectored17h35f293228a7b80b4E', symObjAddr: 0x23CC4, symBinAddr: 0xA02D4, symSize: 0x108 }
  - { offsetInCU: 0x52A5D, offset: 0xA7687, size: 0x8, addend: 0x0, symName: '__ZN59_$LT$$RF$std..io..stdio..Stdin$u20$as$u20$std..io..Read$GT$11read_to_end17h634d16d7f42d8e0eE', symObjAddr: 0x23DCC, symBinAddr: 0xA03DC, symSize: 0xF0 }
  - { offsetInCU: 0x52D1F, offset: 0xA7949, size: 0x8, addend: 0x0, symName: '__ZN59_$LT$$RF$std..io..stdio..Stdin$u20$as$u20$std..io..Read$GT$14read_to_string17h505adc85c008d3ecE', symObjAddr: 0x23EBC, symBinAddr: 0xA04CC, symSize: 0x100 }
  - { offsetInCU: 0x52F9D, offset: 0xA7BC7, size: 0x8, addend: 0x0, symName: '__ZN59_$LT$$RF$std..io..stdio..Stdin$u20$as$u20$std..io..Read$GT$10read_exact17habab422ab8cede01E', symObjAddr: 0x23FBC, symBinAddr: 0xA05CC, symSize: 0x100 }
  - { offsetInCU: 0x5321B, offset: 0xA7E45, size: 0x8, addend: 0x0, symName: '__ZN59_$LT$$RF$std..io..stdio..Stdin$u20$as$u20$std..io..Read$GT$14read_buf_exact17he0d364664505ed27E', symObjAddr: 0x240BC, symBinAddr: 0xA06CC, symSize: 0xF0 }
  - { offsetInCU: 0x534A0, offset: 0xA80CA, size: 0x8, addend: 0x0, symName: '__ZN62_$LT$std..io..stdio..StdinLock$u20$as$u20$std..io..BufRead$GT$8fill_buf17h1a81e43bb02efc7fE', symObjAddr: 0x24868, symBinAddr: 0xA0E78, symSize: 0xC0 }
  - { offsetInCU: 0x536DE, offset: 0xA8308, size: 0x8, addend: 0x0, symName: '__ZN62_$LT$std..io..stdio..StdinLock$u20$as$u20$std..io..BufRead$GT$7consume17h7f36aab294e92793E', symObjAddr: 0x24928, symBinAddr: 0xA0F38, symSize: 0x28 }
  - { offsetInCU: 0x53781, offset: 0xA83AB, size: 0x8, addend: 0x0, symName: '__ZN62_$LT$std..io..stdio..StdinLock$u20$as$u20$std..io..BufRead$GT$10read_until17hb6f113b679a39f47E', symObjAddr: 0x24950, symBinAddr: 0xA0F60, symSize: 0x18 }
  - { offsetInCU: 0x537E0, offset: 0xA840A, size: 0x8, addend: 0x0, symName: '__ZN62_$LT$std..io..stdio..StdinLock$u20$as$u20$std..io..BufRead$GT$9read_line17h2e9e2053dc515872E', symObjAddr: 0x24968, symBinAddr: 0xA0F78, symSize: 0xE0 }
  - { offsetInCU: 0x539A4, offset: 0xA85CE, size: 0x8, addend: 0x0, symName: '__ZN62_$LT$std..io..stdio..StdinLock$u20$as$u20$core..fmt..Debug$GT$3fmt17h5bd87f0e8e2bd501E', symObjAddr: 0x24A48, symBinAddr: 0xA1058, symSize: 0x38 }
  - { offsetInCU: 0x539C0, offset: 0xA85EA, size: 0x8, addend: 0x0, symName: __ZN3std2io5stdio6stdout17hafa8bfa229222f87E, symObjAddr: 0x24A80, symBinAddr: 0xA1090, symSize: 0x3C }
  - { offsetInCU: 0x539F3, offset: 0xA861D, size: 0x8, addend: 0x0, symName: __ZN3std2io5stdio6stdout17hafa8bfa229222f87E, symObjAddr: 0x24A80, symBinAddr: 0xA1090, symSize: 0x3C }
  - { offsetInCU: 0x53A09, offset: 0xA8633, size: 0x8, addend: 0x0, symName: __ZN3std2io5stdio6stdout17hafa8bfa229222f87E, symObjAddr: 0x24A80, symBinAddr: 0xA1090, symSize: 0x3C }
  - { offsetInCU: 0x53A1E, offset: 0xA8648, size: 0x8, addend: 0x0, symName: __ZN3std2io5stdio6stdout17hafa8bfa229222f87E, symObjAddr: 0x24A80, symBinAddr: 0xA1090, symSize: 0x3C }
  - { offsetInCU: 0x53A34, offset: 0xA865E, size: 0x8, addend: 0x0, symName: __ZN3std2io5stdio6stdout17hafa8bfa229222f87E, symObjAddr: 0x24A80, symBinAddr: 0xA1090, symSize: 0x3C }
  - { offsetInCU: 0x53A49, offset: 0xA8673, size: 0x8, addend: 0x0, symName: __ZN3std2io5stdio6stdout17hafa8bfa229222f87E, symObjAddr: 0x24A80, symBinAddr: 0xA1090, symSize: 0x3C }
  - { offsetInCU: 0x53A5E, offset: 0xA8688, size: 0x8, addend: 0x0, symName: __ZN3std2io5stdio6stdout17hafa8bfa229222f87E, symObjAddr: 0x24A80, symBinAddr: 0xA1090, symSize: 0x3C }
  - { offsetInCU: 0x53A7E, offset: 0xA86A8, size: 0x8, addend: 0x0, symName: '__ZN59_$LT$std..io..stdio..Stdout$u20$as$u20$core..fmt..Debug$GT$3fmt17h7ad23c31f0d21604E', symObjAddr: 0x24ABC, symBinAddr: 0xA10CC, symSize: 0x38 }
  - { offsetInCU: 0x53AA0, offset: 0xA86CA, size: 0x8, addend: 0x0, symName: '__ZN57_$LT$std..io..stdio..Stdout$u20$as$u20$std..io..Write$GT$5write17h5fd4df9c6b029c23E', symObjAddr: 0x24AF4, symBinAddr: 0xA1104, symSize: 0x24 }
  - { offsetInCU: 0x53ABB, offset: 0xA86E5, size: 0x8, addend: 0x0, symName: '__ZN57_$LT$std..io..stdio..Stdout$u20$as$u20$std..io..Write$GT$14write_vectored17hae829d913d313e2dE', symObjAddr: 0x24B18, symBinAddr: 0xA1128, symSize: 0x24 }
  - { offsetInCU: 0x53AD6, offset: 0xA8700, size: 0x8, addend: 0x0, symName: '__ZN57_$LT$std..io..stdio..Stdout$u20$as$u20$std..io..Write$GT$5flush17hb490d537506dca07E', symObjAddr: 0x24B3C, symBinAddr: 0xA114C, symSize: 0x24 }
  - { offsetInCU: 0x53AF1, offset: 0xA871B, size: 0x8, addend: 0x0, symName: '__ZN57_$LT$std..io..stdio..Stdout$u20$as$u20$std..io..Write$GT$9write_all17h18030771f2f714b1E', symObjAddr: 0x24B60, symBinAddr: 0xA1170, symSize: 0x24 }
  - { offsetInCU: 0x53B0C, offset: 0xA8736, size: 0x8, addend: 0x0, symName: '__ZN57_$LT$std..io..stdio..Stdout$u20$as$u20$std..io..Write$GT$18write_all_vectored17he5250e6ff804ef90E', symObjAddr: 0x24B84, symBinAddr: 0xA1194, symSize: 0x24 }
  - { offsetInCU: 0x53B27, offset: 0xA8751, size: 0x8, addend: 0x0, symName: '__ZN57_$LT$std..io..stdio..Stdout$u20$as$u20$std..io..Write$GT$9write_fmt17hf84f298b78448381E', symObjAddr: 0x24BA8, symBinAddr: 0xA11B8, symSize: 0x24 }
  - { offsetInCU: 0x53B65, offset: 0xA878F, size: 0x8, addend: 0x0, symName: '__ZN61_$LT$$RF$std..io..stdio..Stdout$u20$as$u20$std..io..Write$GT$5write17h915f01361796b893E', symObjAddr: 0x24BCC, symBinAddr: 0xA11DC, symSize: 0x12C }
  - { offsetInCU: 0x53D71, offset: 0xA899B, size: 0x8, addend: 0x0, symName: '__ZN61_$LT$$RF$std..io..stdio..Stdout$u20$as$u20$std..io..Write$GT$14write_vectored17h1d60f6b9c47a0bbfE', symObjAddr: 0x24CF8, symBinAddr: 0xA1308, symSize: 0x160 }
  - { offsetInCU: 0x541D2, offset: 0xA8DFC, size: 0x8, addend: 0x0, symName: '__ZN61_$LT$$RF$std..io..stdio..Stdout$u20$as$u20$std..io..Write$GT$5flush17h8cb71bda66a36fa2E', symObjAddr: 0x24E58, symBinAddr: 0xA1468, symSize: 0x138 }
  - { offsetInCU: 0x54649, offset: 0xA9273, size: 0x8, addend: 0x0, symName: '__ZN61_$LT$$RF$std..io..stdio..Stdout$u20$as$u20$std..io..Write$GT$9write_all17ha1344391a5e761abE', symObjAddr: 0x24F90, symBinAddr: 0xA15A0, symSize: 0x124 }
  - { offsetInCU: 0x54855, offset: 0xA947F, size: 0x8, addend: 0x0, symName: '__ZN61_$LT$$RF$std..io..stdio..Stdout$u20$as$u20$std..io..Write$GT$18write_all_vectored17h46abb6ff1d842ce1E', symObjAddr: 0x250B4, symBinAddr: 0xA16C4, symSize: 0x124 }
  - { offsetInCU: 0x54A61, offset: 0xA968B, size: 0x8, addend: 0x0, symName: '__ZN61_$LT$$RF$std..io..stdio..Stdout$u20$as$u20$std..io..Write$GT$9write_fmt17h32c55174d077cb90E', symObjAddr: 0x251D8, symBinAddr: 0xA17E8, symSize: 0x180 }
  - { offsetInCU: 0x54CF7, offset: 0xA9921, size: 0x8, addend: 0x0, symName: '__ZN61_$LT$std..io..stdio..StdoutLock$u20$as$u20$std..io..Write$GT$5write17h059d628e7e950a8aE', symObjAddr: 0x25358, symBinAddr: 0xA1968, symSize: 0x27C }
  - { offsetInCU: 0x5550C, offset: 0xAA136, size: 0x8, addend: 0x0, symName: '__ZN61_$LT$std..io..stdio..StdoutLock$u20$as$u20$std..io..Write$GT$14write_vectored17hd8e231c70e986a1aE', symObjAddr: 0x255D4, symBinAddr: 0xA1BE4, symSize: 0x5C }
  - { offsetInCU: 0x5577D, offset: 0xAA3A7, size: 0x8, addend: 0x0, symName: '__ZN61_$LT$std..io..stdio..StdoutLock$u20$as$u20$std..io..Write$GT$5flush17h4e32167b6e25f110E', symObjAddr: 0x25630, symBinAddr: 0xA1C40, symSize: 0x5C }
  - { offsetInCU: 0x55A04, offset: 0xAA62E, size: 0x8, addend: 0x0, symName: '__ZN61_$LT$std..io..stdio..StdoutLock$u20$as$u20$std..io..Write$GT$9write_all17h19c66e3a95c612cfE', symObjAddr: 0x2568C, symBinAddr: 0xA1C9C, symSize: 0x1AC }
  - { offsetInCU: 0x55F70, offset: 0xAAB9A, size: 0x8, addend: 0x0, symName: '__ZN61_$LT$std..io..stdio..StdoutLock$u20$as$u20$std..io..Write$GT$18write_all_vectored17h2a3ff48316f86751E', symObjAddr: 0x25838, symBinAddr: 0xA1E48, symSize: 0x270 }
  - { offsetInCU: 0x56519, offset: 0xAB143, size: 0x8, addend: 0x0, symName: '__ZN63_$LT$std..io..stdio..StdoutLock$u20$as$u20$core..fmt..Debug$GT$3fmt17hadfc6707fe9da685E', symObjAddr: 0x25AA8, symBinAddr: 0xA20B8, symSize: 0x38 }
  - { offsetInCU: 0x5653B, offset: 0xAB165, size: 0x8, addend: 0x0, symName: __ZN3std2io5stdio6Stderr4lock17heca06545dc414f82E, symObjAddr: 0x25AE0, symBinAddr: 0xA20F0, symSize: 0x0 }
  - { offsetInCU: 0x56687, offset: 0xAB2B1, size: 0x8, addend: 0x0, symName: '__ZN59_$LT$std..io..stdio..Stderr$u20$as$u20$core..fmt..Debug$GT$3fmt17h89adab8b7b74434eE', symObjAddr: 0x25B84, symBinAddr: 0xA2194, symSize: 0x38 }
  - { offsetInCU: 0x566A9, offset: 0xAB2D3, size: 0x8, addend: 0x0, symName: '__ZN57_$LT$std..io..stdio..Stderr$u20$as$u20$std..io..Write$GT$5write17h7c8383b0c7075effE', symObjAddr: 0x25BBC, symBinAddr: 0xA21CC, symSize: 0x24 }
  - { offsetInCU: 0x566C4, offset: 0xAB2EE, size: 0x8, addend: 0x0, symName: '__ZN57_$LT$std..io..stdio..Stderr$u20$as$u20$std..io..Write$GT$14write_vectored17h47bf35702dd0c5eaE', symObjAddr: 0x25BE0, symBinAddr: 0xA21F0, symSize: 0x24 }
  - { offsetInCU: 0x566DF, offset: 0xAB309, size: 0x8, addend: 0x0, symName: '__ZN57_$LT$std..io..stdio..Stderr$u20$as$u20$std..io..Write$GT$5flush17h903fe101a747b752E', symObjAddr: 0x25C04, symBinAddr: 0xA2214, symSize: 0x24 }
  - { offsetInCU: 0x566FA, offset: 0xAB324, size: 0x8, addend: 0x0, symName: '__ZN57_$LT$std..io..stdio..Stderr$u20$as$u20$std..io..Write$GT$9write_all17h4fb2205a00a5f478E', symObjAddr: 0x25C28, symBinAddr: 0xA2238, symSize: 0x24 }
  - { offsetInCU: 0x56715, offset: 0xAB33F, size: 0x8, addend: 0x0, symName: '__ZN57_$LT$std..io..stdio..Stderr$u20$as$u20$std..io..Write$GT$18write_all_vectored17h496f5da0a80a0c15E', symObjAddr: 0x25C4C, symBinAddr: 0xA225C, symSize: 0x24 }
  - { offsetInCU: 0x56730, offset: 0xAB35A, size: 0x8, addend: 0x0, symName: '__ZN57_$LT$std..io..stdio..Stderr$u20$as$u20$std..io..Write$GT$9write_fmt17h28f2c83059dd59c1E', symObjAddr: 0x25C70, symBinAddr: 0xA2280, symSize: 0x24 }
  - { offsetInCU: 0x56759, offset: 0xAB383, size: 0x8, addend: 0x0, symName: '__ZN61_$LT$$RF$std..io..stdio..Stderr$u20$as$u20$std..io..Write$GT$5write17hfb5ce4aa62c52b99E', symObjAddr: 0x25C94, symBinAddr: 0xA22A4, symSize: 0x1B8 }
  - { offsetInCU: 0x56CB1, offset: 0xAB8DB, size: 0x8, addend: 0x0, symName: '__ZN61_$LT$$RF$std..io..stdio..Stderr$u20$as$u20$std..io..Write$GT$14write_vectored17h6e46493d324f8af3E', symObjAddr: 0x25E4C, symBinAddr: 0xA245C, symSize: 0x12C }
  - { offsetInCU: 0x56EBD, offset: 0xABAE7, size: 0x8, addend: 0x0, symName: '__ZN61_$LT$$RF$std..io..stdio..Stderr$u20$as$u20$std..io..Write$GT$5flush17h277cb1dc91dd0bd5E', symObjAddr: 0x25F78, symBinAddr: 0xA2588, symSize: 0x124 }
  - { offsetInCU: 0x5715B, offset: 0xABD85, size: 0x8, addend: 0x0, symName: '__ZN61_$LT$$RF$std..io..stdio..Stderr$u20$as$u20$std..io..Write$GT$9write_all17h4f626aa78bb1e0e5E', symObjAddr: 0x2609C, symBinAddr: 0xA26AC, symSize: 0x154 }
  - { offsetInCU: 0x57590, offset: 0xAC1BA, size: 0x8, addend: 0x0, symName: '__ZN61_$LT$$RF$std..io..stdio..Stderr$u20$as$u20$std..io..Write$GT$18write_all_vectored17hd5f2bd8055c9de24E', symObjAddr: 0x261F0, symBinAddr: 0xA2800, symSize: 0x18C }
  - { offsetInCU: 0x57A5F, offset: 0xAC689, size: 0x8, addend: 0x0, symName: '__ZN61_$LT$$RF$std..io..stdio..Stderr$u20$as$u20$std..io..Write$GT$9write_fmt17h92de77ae5286269cE', symObjAddr: 0x2637C, symBinAddr: 0xA298C, symSize: 0x180 }
  - { offsetInCU: 0x57CD9, offset: 0xAC903, size: 0x8, addend: 0x0, symName: '__ZN63_$LT$std..io..stdio..StderrLock$u20$as$u20$core..fmt..Debug$GT$3fmt17hdb37e10ce6cf0acfE', symObjAddr: 0x26800, symBinAddr: 0xA2E10, symSize: 0x38 }
  - { offsetInCU: 0x57D40, offset: 0xAC96A, size: 0x8, addend: 0x0, symName: __ZN3std2io5stdio18set_output_capture17h2548078ef97376e6E, symObjAddr: 0x26838, symBinAddr: 0xA2E48, symSize: 0xE8 }
  - { offsetInCU: 0x58032, offset: 0xACC5C, size: 0x8, addend: 0x0, symName: __ZN3std2io5stdio22try_set_output_capture17hb3ca20b773da20caE, symObjAddr: 0x26920, symBinAddr: 0xA2F30, symSize: 0xD8 }
  - { offsetInCU: 0x58322, offset: 0xACF4C, size: 0x8, addend: 0x0, symName: __ZN3std2io5stdio31print_to_buffer_if_capture_used17h13c9b1851c4739edE, symObjAddr: 0x269F8, symBinAddr: 0xA3008, symSize: 0x1FC }
  - { offsetInCU: 0x5894F, offset: 0xAD579, size: 0x8, addend: 0x0, symName: __ZN3std2io5stdio23attempt_print_to_stderr17hd3ad331f7543f353E, symObjAddr: 0x26BF4, symBinAddr: 0xA3204, symSize: 0x58 }
  - { offsetInCU: 0x589C9, offset: 0xAD5F3, size: 0x8, addend: 0x0, symName: __ZN3std2io5stdio6_print17h7067c4eaf44b40ceE, symObjAddr: 0x26C4C, symBinAddr: 0xA325C, symSize: 0xE4 }
  - { offsetInCU: 0x58AD7, offset: 0xAD701, size: 0x8, addend: 0x0, symName: __ZN3std2io5stdio7_eprint17h07dfaa17e1030e8cE, symObjAddr: 0x26D30, symBinAddr: 0xA3340, symSize: 0xC8 }
  - { offsetInCU: 0x58B4E, offset: 0xAD778, size: 0x8, addend: 0x0, symName: '__ZN3std2io5impls74_$LT$impl$u20$std..io..Write$u20$for$u20$alloc..vec..Vec$LT$u8$C$A$GT$$GT$5write17h39df50cd4739c86fE', symObjAddr: 0x22354, symBinAddr: 0x9E964, symSize: 0x7C }
  - { offsetInCU: 0x58C66, offset: 0xAD890, size: 0x8, addend: 0x0, symName: '__ZN3std2io5impls74_$LT$impl$u20$std..io..Write$u20$for$u20$alloc..vec..Vec$LT$u8$C$A$GT$$GT$14write_vectored17h28725ed6edc29177E', symObjAddr: 0x223D0, symBinAddr: 0x9E9E0, symSize: 0x13C }
  - { offsetInCU: 0x58EAE, offset: 0xADAD8, size: 0x8, addend: 0x0, symName: '__ZN3std2io5impls74_$LT$impl$u20$std..io..Write$u20$for$u20$alloc..vec..Vec$LT$u8$C$A$GT$$GT$17is_write_vectored17h7f5eb512e9d1a7baE', symObjAddr: 0x2250C, symBinAddr: 0x9EB1C, symSize: 0x14 }
  - { offsetInCU: 0x58EC9, offset: 0xADAF3, size: 0x8, addend: 0x0, symName: '__ZN3std2io5impls74_$LT$impl$u20$std..io..Write$u20$for$u20$alloc..vec..Vec$LT$u8$C$A$GT$$GT$9write_all17h15120af5104079adE', symObjAddr: 0x22520, symBinAddr: 0x9EB30, symSize: 0x78 }
  - { offsetInCU: 0x58FDA, offset: 0xADC04, size: 0x8, addend: 0x0, symName: '__ZN3std2io5impls74_$LT$impl$u20$std..io..Write$u20$for$u20$alloc..vec..Vec$LT$u8$C$A$GT$$GT$5flush17haa305c2828b0c12eE', symObjAddr: 0x22598, symBinAddr: 0x9EBA8, symSize: 0x14 }
  - { offsetInCU: 0x5904E, offset: 0xADC78, size: 0x8, addend: 0x0, symName: '__ZN3std2io5impls83_$LT$impl$u20$std..io..Write$u20$for$u20$core..io..borrowed_buf..BorrowedCursor$GT$5write17h1263880fa6da5940E', symObjAddr: 0x225AC, symBinAddr: 0x9EBBC, symSize: 0x6C }
  - { offsetInCU: 0x59218, offset: 0xADE42, size: 0x8, addend: 0x0, symName: '__ZN3std2io8buffered9bufwriter18BufWriter$LT$W$GT$9flush_buf17h797a0555889f013aE', symObjAddr: 0x20D50, symBinAddr: 0x9D4F0, symSize: 0x178 }
  - { offsetInCU: 0x5954E, offset: 0xAE178, size: 0x8, addend: 0x0, symName: '__ZN3std2io8buffered9bufwriter18BufWriter$LT$W$GT$10write_cold17ha71fb28a1e6a005bE', symObjAddr: 0x20F5C, symBinAddr: 0x103224, symSize: 0x100 }
  - { offsetInCU: 0x597A7, offset: 0xAE3D1, size: 0x8, addend: 0x0, symName: '__ZN3std2io8buffered9bufwriter18BufWriter$LT$W$GT$14write_all_cold17h6d00f04039819110E', symObjAddr: 0x2105C, symBinAddr: 0x103324, symSize: 0x90 }
  - { offsetInCU: 0x59942, offset: 0xAE56C, size: 0x8, addend: 0x0, symName: '__ZN111_$LT$std..io..buffered..bufwriter..BufWriter$LT$W$GT$..flush_buf..BufGuard$u20$as$u20$core..ops..drop..Drop$GT$4drop17hbb5d25571079f64eE', symObjAddr: 0x20EFC, symBinAddr: 0x9D69C, symSize: 0x60 }
  - { offsetInCU: 0x59AA1, offset: 0xAE6CB, size: 0x8, addend: 0x0, symName: '__ZN3std2io8buffered9bufwriter18BufWriter$LT$W$GT$9flush_buf8BufGuard9remaining17h291a383198ebeea3E', symObjAddr: 0x20EC8, symBinAddr: 0x9D668, symSize: 0x34 }
  - { offsetInCU: 0x59B43, offset: 0xAE76D, size: 0x8, addend: 0x0, symName: '__ZN83_$LT$std..io..buffered..bufwriter..WriterPanicked$u20$as$u20$core..fmt..Display$GT$3fmt17h6b8a91ec40289dafE', symObjAddr: 0x210EC, symBinAddr: 0x9D6FC, symSize: 0x54 }
  - { offsetInCU: 0x59B92, offset: 0xAE7BC, size: 0x8, addend: 0x0, symName: '__ZN81_$LT$std..io..buffered..bufwriter..WriterPanicked$u20$as$u20$core..fmt..Debug$GT$3fmt17h811b34a7d121175eE', symObjAddr: 0x21140, symBinAddr: 0x9D750, symSize: 0xA4 }
  - { offsetInCU: 0x59ECB, offset: 0xAEAF5, size: 0x8, addend: 0x0, symName: '__ZN82_$LT$std..io..buffered..bufreader..BufReader$LT$R$GT$$u20$as$u20$std..io..Read$GT$4read17h08ef4dc1499b0ab5E', symObjAddr: 0x20880, symBinAddr: 0x9D020, symSize: 0x1A8 }
  - { offsetInCU: 0x5A2EE, offset: 0xAEF18, size: 0x8, addend: 0x0, symName: '__ZN82_$LT$std..io..buffered..bufreader..BufReader$LT$R$GT$$u20$as$u20$std..io..Read$GT$8read_buf17hdff864d5c30a544cE', symObjAddr: 0x20A28, symBinAddr: 0x9D1C8, symSize: 0x1CC }
  - { offsetInCU: 0x5A98E, offset: 0xAF5B8, size: 0x8, addend: 0x0, symName: '__ZN82_$LT$std..io..buffered..bufreader..BufReader$LT$R$GT$$u20$as$u20$std..io..Read$GT$11read_to_end17h955b3f599338aa16E', symObjAddr: 0x20BF4, symBinAddr: 0x9D394, symSize: 0x15C }
  - { offsetInCU: 0x5ADC7, offset: 0xAF9F1, size: 0x8, addend: 0x0, symName: '__ZN93_$LT$std..io..buffered..linewritershim..LineWriterShim$LT$W$GT$$u20$as$u20$std..io..Write$GT$14write_vectored17hfec784efc415ce6cE', symObjAddr: 0x211E4, symBinAddr: 0x9D7F4, symSize: 0x414 }
  - { offsetInCU: 0x5B838, offset: 0xB0462, size: 0x8, addend: 0x0, symName: __ZN3std2io5error14repr_bitpacked4Repr3new17h1b2fed2a5ea7f14fE, symObjAddr: 0x21620, symBinAddr: 0x9DC30, symSize: 0x58 }
  - { offsetInCU: 0x5B9C5, offset: 0xB05EF, size: 0x8, addend: 0x0, symName: __ZN3std2io5error14repr_bitpacked11decode_repr17hb2ed110591de6847E, symObjAddr: 0x21678, symBinAddr: 0x9DC88, symSize: 0x1C8 }
  - { offsetInCU: 0x5BA81, offset: 0xB06AB, size: 0x8, addend: 0x0, symName: __ZN3std2io5error5Error3new17h5090d891ffe5b049E, symObjAddr: 0x218CC, symBinAddr: 0x9DEDC, symSize: 0x12C }
  - { offsetInCU: 0x5BDD9, offset: 0xB0A03, size: 0x8, addend: 0x0, symName: __ZN3std2io5error5Error3new17h6af3e9ca566b4e24E, symObjAddr: 0x219F8, symBinAddr: 0x9E008, symSize: 0x80 }
  - { offsetInCU: 0x5BEBD, offset: 0xB0AE7, size: 0x8, addend: 0x0, symName: __ZN3std2io5error5Error4_new17hf490ca4af032f996E, symObjAddr: 0x21A78, symBinAddr: 0x9E088, symSize: 0x84 }
  - { offsetInCU: 0x5C047, offset: 0xB0C71, size: 0x8, addend: 0x0, symName: '__ZN58_$LT$std..io..error..Error$u20$as$u20$core..fmt..Debug$GT$3fmt17hb805d7ebed092660E', symObjAddr: 0x21840, symBinAddr: 0x9DE50, symSize: 0x10 }
  - { offsetInCU: 0x5C068, offset: 0xB0C92, size: 0x8, addend: 0x0, symName: '__ZN96_$LT$std..io..error..Error$u20$as$u20$core..convert..From$LT$alloc..ffi..c_str..NulError$GT$$GT$4from17hf4294b510f1a5c70E', symObjAddr: 0x21850, symBinAddr: 0x9DE60, symSize: 0x2C }
  - { offsetInCU: 0x5C086, offset: 0xB0CB0, size: 0x8, addend: 0x0, symName: '__ZN96_$LT$std..io..error..Error$u20$as$u20$core..convert..From$LT$alloc..ffi..c_str..NulError$GT$$GT$4from17hf4294b510f1a5c70E', symObjAddr: 0x21850, symBinAddr: 0x9DE60, symSize: 0x2C }
  - { offsetInCU: 0x5C09B, offset: 0xB0CC5, size: 0x8, addend: 0x0, symName: '__ZN96_$LT$std..io..error..Error$u20$as$u20$core..convert..From$LT$alloc..ffi..c_str..NulError$GT$$GT$4from17hf4294b510f1a5c70E', symObjAddr: 0x21850, symBinAddr: 0x9DE60, symSize: 0x2C }
  - { offsetInCU: 0x5C118, offset: 0xB0D42, size: 0x8, addend: 0x0, symName: '__ZN104_$LT$std..io..error..Error$u20$as$u20$core..convert..From$LT$alloc..collections..TryReserveError$GT$$GT$4from17hacb8623e22d4904eE', symObjAddr: 0x2187C, symBinAddr: 0x9DE8C, symSize: 0x18 }
  - { offsetInCU: 0x5C14E, offset: 0xB0D78, size: 0x8, addend: 0x0, symName: '__ZN64_$LT$std..io..error..ErrorKind$u20$as$u20$core..fmt..Display$GT$3fmt17h2a8383c6f3279e2bE', symObjAddr: 0x21894, symBinAddr: 0x9DEA4, symSize: 0x38 }
  - { offsetInCU: 0x5C19B, offset: 0xB0DC5, size: 0x8, addend: 0x0, symName: '__ZN3std2io5error83_$LT$impl$u20$core..fmt..Debug$u20$for$u20$std..io..error..repr_bitpacked..Repr$GT$3fmt17hbf3f1e15055158a1E', symObjAddr: 0x21AFC, symBinAddr: 0x9E10C, symSize: 0x3F4 }
  - { offsetInCU: 0x5C3FC, offset: 0xB1026, size: 0x8, addend: 0x0, symName: '__ZN60_$LT$std..io..error..Error$u20$as$u20$core..fmt..Display$GT$3fmt17hbcb014a1996651caE', symObjAddr: 0x21EF0, symBinAddr: 0x9E500, symSize: 0x208 }
  - { offsetInCU: 0x5C65A, offset: 0xB1284, size: 0x8, addend: 0x0, symName: '__ZN60_$LT$std..io..error..Error$u20$as$u20$core..error..Error$GT$11description17h00590d9a8223b87eE', symObjAddr: 0x220F8, symBinAddr: 0x9E708, symSize: 0x1DC }
  - { offsetInCU: 0x5C6FA, offset: 0xB1324, size: 0x8, addend: 0x0, symName: '__ZN60_$LT$std..io..error..Error$u20$as$u20$core..error..Error$GT$5cause17hdf54ea6d3d7e89afE', symObjAddr: 0x222D4, symBinAddr: 0x9E8E4, symSize: 0x40 }
  - { offsetInCU: 0x5C719, offset: 0xB1343, size: 0x8, addend: 0x0, symName: '__ZN60_$LT$std..io..error..Error$u20$as$u20$core..error..Error$GT$5cause17hdf54ea6d3d7e89afE', symObjAddr: 0x222D4, symBinAddr: 0x9E8E4, symSize: 0x40 }
  - { offsetInCU: 0x5C742, offset: 0xB136C, size: 0x8, addend: 0x0, symName: '__ZN60_$LT$std..io..error..Error$u20$as$u20$core..error..Error$GT$6source17hecde0c4334b6eacaE', symObjAddr: 0x22314, symBinAddr: 0x9E924, symSize: 0x40 }
  - { offsetInCU: 0x5C761, offset: 0xB138B, size: 0x8, addend: 0x0, symName: '__ZN60_$LT$std..io..error..Error$u20$as$u20$core..error..Error$GT$6source17hecde0c4334b6eacaE', symObjAddr: 0x22314, symBinAddr: 0x9E924, symSize: 0x40 }
  - { offsetInCU: 0x5C7A5, offset: 0xB13CF, size: 0x8, addend: 0x0, symName: '__ZN62_$LT$std..io..error..ErrorKind$u20$as$u20$core..fmt..Debug$GT$3fmt17h13ce7e6f51194ee2E', symObjAddr: 0x36560, symBinAddr: 0xB204C, symSize: 0x38 }
  - { offsetInCU: 0x5C8FA, offset: 0xB1524, size: 0x8, addend: 0x0, symName: '__ZN79_$LT$alloc..vec..Vec$LT$u8$GT$$u20$as$u20$std..io..copy..BufferedWriterSpec$GT$11buffer_size17h0a088ebbea93b0f9E', symObjAddr: 0x215F8, symBinAddr: 0x9DC08, symSize: 0x28 }
  - { offsetInCU: 0x5CA6F, offset: 0xB1699, size: 0x8, addend: 0x0, symName: '__ZN55_$LT$std..io..util..Repeat$u20$as$u20$std..io..Read$GT$8read_buf17hae961c0c990ad2c2E', symObjAddr: 0x26DF8, symBinAddr: 0xA3408, symSize: 0x64 }
  - { offsetInCU: 0x5CB74, offset: 0xB179E, size: 0x8, addend: 0x0, symName: '__ZN55_$LT$std..io..util..Repeat$u20$as$u20$std..io..Read$GT$11read_to_end17h2c63d338f2b535c2E', symObjAddr: 0x26E5C, symBinAddr: 0xA346C, symSize: 0x0 }
  - { offsetInCU: 0x5CB95, offset: 0xB17BF, size: 0x8, addend: 0x0, symName: '__ZN58_$LT$std..io..util..Repeat$u20$as$u20$core..fmt..Debug$GT$3fmt17h36f16d3ec2c4065fE', symObjAddr: 0x26E78, symBinAddr: 0xA3488, symSize: 0x38 }
  - { offsetInCU: 0x5CBE1, offset: 0xB180B, size: 0x8, addend: 0x0, symName: __ZN3std2io19default_read_to_end16small_probe_read17h29055915f4ba1e3eE, symObjAddr: 0x27618, symBinAddr: 0xA3C28, symSize: 0x118 }
  - { offsetInCU: 0x5CDCE, offset: 0xB19F8, size: 0x8, addend: 0x0, symName: __ZN3std2io19default_read_to_end16small_probe_read17h8f0544ffa63c1937E, symObjAddr: 0x27730, symBinAddr: 0xA3D40, symSize: 0x11C }
  - { offsetInCU: 0x5CFD8, offset: 0xB1C02, size: 0x8, addend: 0x0, symName: __ZN3std2io19default_read_to_end16small_probe_read17hab0227274fafb6f4E, symObjAddr: 0x2784C, symBinAddr: 0xA3E5C, symSize: 0x118 }
  - { offsetInCU: 0x5D1E4, offset: 0xB1E0E, size: 0x8, addend: 0x0, symName: __ZN3std2io19default_read_to_end16small_probe_read17hbaab0565f1fe11e3E, symObjAddr: 0x27964, symBinAddr: 0xA3F74, symSize: 0x118 }
  - { offsetInCU: 0x5D3E0, offset: 0xB200A, size: 0x8, addend: 0x0, symName: __ZN3std2io19default_read_to_end16small_probe_read17hca14a44e62340c28E, symObjAddr: 0x27A7C, symBinAddr: 0xA408C, symSize: 0x11C }
  - { offsetInCU: 0x5D5FA, offset: 0xB2224, size: 0x8, addend: 0x0, symName: __ZN3std2io19default_read_to_end17h3ea7f611f280a542E, symObjAddr: 0x26EB0, symBinAddr: 0xA34C0, symSize: 0x27C }
  - { offsetInCU: 0x5DAB3, offset: 0xB26DD, size: 0x8, addend: 0x0, symName: __ZN3std2io19default_read_to_end17h504fe3d1a9d77beeE, symObjAddr: 0x2712C, symBinAddr: 0xA373C, symSize: 0x27C }
  - { offsetInCU: 0x5DF5F, offset: 0xB2B89, size: 0x8, addend: 0x0, symName: __ZN3std2io19default_read_to_end17h5a309a240d29732cE, symObjAddr: 0x273A8, symBinAddr: 0xA39B8, symSize: 0x270 }
  - { offsetInCU: 0x5E3F2, offset: 0xB301C, size: 0x8, addend: 0x0, symName: '__ZN53_$LT$std..io..IoSlice$u20$as$u20$core..fmt..Debug$GT$3fmt17h3e7ce45113b5ad11E', symObjAddr: 0x27B98, symBinAddr: 0xA41A8, symSize: 0x0 }
  - { offsetInCU: 0x5E4B9, offset: 0xB30E3, size: 0x8, addend: 0x0, symName: __ZN3std2io10read_until17h7a51a7f292bb7494E, symObjAddr: 0x28634, symBinAddr: 0xA4C44, symSize: 0x2EC }
  - { offsetInCU: 0x5EC0F, offset: 0xB3839, size: 0x8, addend: 0x0, symName: __ZN3std4sync14reentrant_lock25current_thread_unique_ptr17hf27cb833194a0938E, symObjAddr: 0x30FF4, symBinAddr: 0xAD33C, symSize: 0x20 }
  - { offsetInCU: 0x5EC64, offset: 0xB388E, size: 0x8, addend: 0x0, symName: '__ZN3std4sync4once4Once15call_once_force28_$u7b$$u7b$closure$u7d$$u7d$17h4313b8e0b99cf3c5E', symObjAddr: 0x30C98, symBinAddr: 0xAD114, symSize: 0x78 }
  - { offsetInCU: 0x5EDE4, offset: 0xB3A0E, size: 0x8, addend: 0x0, symName: '__ZN3std4sync4once4Once15call_once_force28_$u7b$$u7b$closure$u7d$$u7d$17hfd0a9b5504fb77deE', symObjAddr: 0x30D10, symBinAddr: 0xAD18C, symSize: 0x60 }
  - { offsetInCU: 0x5EECE, offset: 0xB3AF8, size: 0x8, addend: 0x0, symName: '__ZN3std4sync4once4Once15call_once_force28_$u7b$$u7b$closure$u7d$$u7d$17hfe0c8c873b9b7169E', symObjAddr: 0x30D70, symBinAddr: 0xAD1EC, symSize: 0x74 }
  - { offsetInCU: 0x5F038, offset: 0xB3C62, size: 0x8, addend: 0x0, symName: '__ZN3std4sync4once4Once9call_once28_$u7b$$u7b$closure$u7d$$u7d$17h0ab88f424a4c9c3dE', symObjAddr: 0x308D8, symBinAddr: 0xACD54, symSize: 0x228 }
  - { offsetInCU: 0x5F6A0, offset: 0xB42CA, size: 0x8, addend: 0x0, symName: '__ZN3std4sync4once4Once9call_once28_$u7b$$u7b$closure$u7d$$u7d$17hb072875c9173a4dfE', symObjAddr: 0x30B00, symBinAddr: 0xACF7C, symSize: 0x198 }
  - { offsetInCU: 0x5FAA6, offset: 0xB46D0, size: 0x8, addend: 0x0, symName: '__ZN58_$LT$std..sync..once..Once$u20$as$u20$core..fmt..Debug$GT$3fmt17h830dc60799f5d3ccE', symObjAddr: 0x30DE4, symBinAddr: 0xAD260, symSize: 0x0 }
  - { offsetInCU: 0x5FADD, offset: 0xB4707, size: 0x8, addend: 0x0, symName: '__ZN63_$LT$std..sync..once..OnceState$u20$as$u20$core..fmt..Debug$GT$3fmt17h2aa537e7ec496712E', symObjAddr: 0x30E1C, symBinAddr: 0xAD298, symSize: 0x6C }
  - { offsetInCU: 0x5FC21, offset: 0xB484B, size: 0x8, addend: 0x0, symName: '__ZN3std4sync9once_lock17OnceLock$LT$T$GT$10initialize17h0d60416cfcf2f869E', symObjAddr: 0x30E88, symBinAddr: 0x103548, symSize: 0x6C }
  - { offsetInCU: 0x5FC4E, offset: 0xB4878, size: 0x8, addend: 0x0, symName: '__ZN3std4sync9once_lock17OnceLock$LT$T$GT$10initialize17h0d60416cfcf2f869E', symObjAddr: 0x30E88, symBinAddr: 0x103548, symSize: 0x6C }
  - { offsetInCU: 0x5FC63, offset: 0xB488D, size: 0x8, addend: 0x0, symName: '__ZN3std4sync9once_lock17OnceLock$LT$T$GT$10initialize17h0d60416cfcf2f869E', symObjAddr: 0x30E88, symBinAddr: 0x103548, symSize: 0x6C }
  - { offsetInCU: 0x5FC78, offset: 0xB48A2, size: 0x8, addend: 0x0, symName: '__ZN3std4sync9once_lock17OnceLock$LT$T$GT$10initialize17h0d60416cfcf2f869E', symObjAddr: 0x30E88, symBinAddr: 0x103548, symSize: 0x6C }
  - { offsetInCU: 0x5FC8E, offset: 0xB48B8, size: 0x8, addend: 0x0, symName: '__ZN3std4sync9once_lock17OnceLock$LT$T$GT$10initialize17h56ce0e541cabd898E', symObjAddr: 0x30EF4, symBinAddr: 0x1035B4, symSize: 0x60 }
  - { offsetInCU: 0x5FCBB, offset: 0xB48E5, size: 0x8, addend: 0x0, symName: '__ZN3std4sync9once_lock17OnceLock$LT$T$GT$10initialize17h56ce0e541cabd898E', symObjAddr: 0x30EF4, symBinAddr: 0x1035B4, symSize: 0x60 }
  - { offsetInCU: 0x5FCD0, offset: 0xB48FA, size: 0x8, addend: 0x0, symName: '__ZN3std4sync9once_lock17OnceLock$LT$T$GT$10initialize17h56ce0e541cabd898E', symObjAddr: 0x30EF4, symBinAddr: 0x1035B4, symSize: 0x60 }
  - { offsetInCU: 0x5FCE5, offset: 0xB490F, size: 0x8, addend: 0x0, symName: '__ZN3std4sync9once_lock17OnceLock$LT$T$GT$10initialize17h56ce0e541cabd898E', symObjAddr: 0x30EF4, symBinAddr: 0x1035B4, symSize: 0x60 }
  - { offsetInCU: 0x5FCFB, offset: 0xB4925, size: 0x8, addend: 0x0, symName: '__ZN3std4sync9once_lock17OnceLock$LT$T$GT$10initialize17hd425661153ea6b2fE', symObjAddr: 0x30F54, symBinAddr: 0x103614, symSize: 0x68 }
  - { offsetInCU: 0x5FD28, offset: 0xB4952, size: 0x8, addend: 0x0, symName: '__ZN3std4sync9once_lock17OnceLock$LT$T$GT$10initialize17hd425661153ea6b2fE', symObjAddr: 0x30F54, symBinAddr: 0x103614, symSize: 0x68 }
  - { offsetInCU: 0x5FD3D, offset: 0xB4967, size: 0x8, addend: 0x0, symName: '__ZN3std4sync9once_lock17OnceLock$LT$T$GT$10initialize17hd425661153ea6b2fE', symObjAddr: 0x30F54, symBinAddr: 0x103614, symSize: 0x68 }
  - { offsetInCU: 0x5FD52, offset: 0xB497C, size: 0x8, addend: 0x0, symName: '__ZN3std4sync9once_lock17OnceLock$LT$T$GT$10initialize17hd425661153ea6b2fE', symObjAddr: 0x30F54, symBinAddr: 0x103614, symSize: 0x68 }
  - { offsetInCU: 0x5FDE5, offset: 0xB4A0F, size: 0x8, addend: 0x0, symName: '__ZN76_$LT$std..sync..poison..PoisonError$LT$T$GT$$u20$as$u20$core..fmt..Debug$GT$3fmt17h82417b5f4363f90cE', symObjAddr: 0x30FBC, symBinAddr: 0xAD304, symSize: 0x38 }
  - { offsetInCU: 0x5FFFE, offset: 0xB4C28, size: 0x8, addend: 0x0, symName: '__ZN3std4sync6rwlock15RwLock$LT$T$GT$5write17h38a754478039420eE', symObjAddr: 0x31014, symBinAddr: 0xAD35C, symSize: 0x280 }
  - { offsetInCU: 0x60734, offset: 0xB535E, size: 0x8, addend: 0x0, symName: '__ZN3std4sync6rwlock15RwLock$LT$T$GT$5write17hc50a821c569dfbaaE', symObjAddr: 0x31294, symBinAddr: 0xAD5DC, symSize: 0x280 }
  - { offsetInCU: 0x60F58, offset: 0xB5B82, size: 0x8, addend: 0x0, symName: '__ZN65_$LT$std..sync..mpsc..RecvError$u20$as$u20$core..fmt..Display$GT$3fmt17h795a03733ee06601E', symObjAddr: 0x302C4, symBinAddr: 0xAC8C8, symSize: 0x20 }
  - { offsetInCU: 0x60F7A, offset: 0xB5BA4, size: 0x8, addend: 0x0, symName: '__ZN68_$LT$std..sync..mpsc..TryRecvError$u20$as$u20$core..fmt..Display$GT$3fmt17h38b834eb8177530aE', symObjAddr: 0x302E4, symBinAddr: 0xAC8E8, symSize: 0x34 }
  - { offsetInCU: 0x60F9C, offset: 0xB5BC6, size: 0x8, addend: 0x0, symName: '__ZN72_$LT$std..sync..mpsc..RecvTimeoutError$u20$as$u20$core..fmt..Display$GT$3fmt17h75959c42bbe54478E', symObjAddr: 0x30318, symBinAddr: 0xAC91C, symSize: 0x3C }
  - { offsetInCU: 0x60FC5, offset: 0xB5BEF, size: 0x8, addend: 0x0, symName: '__ZN64_$LT$std..sync..barrier..Barrier$u20$as$u20$core..fmt..Debug$GT$3fmt17hb3aee73dee904988E', symObjAddr: 0x30354, symBinAddr: 0xAC958, symSize: 0x38 }
  - { offsetInCU: 0x60FE6, offset: 0xB5C10, size: 0x8, addend: 0x0, symName: __ZN3std4sync7barrier7Barrier4wait17h5ba1ca2615525677E, symObjAddr: 0x3038C, symBinAddr: 0xAC990, symSize: 0x288 }
  - { offsetInCU: 0x61501, offset: 0xB612B, size: 0x8, addend: 0x0, symName: '__ZN74_$LT$std..sync..barrier..BarrierWaitResult$u20$as$u20$core..fmt..Debug$GT$3fmt17h5110c5d7cd1a6fdfE', symObjAddr: 0x30614, symBinAddr: 0xACC18, symSize: 0x6C }
  - { offsetInCU: 0x61567, offset: 0xB6191, size: 0x8, addend: 0x0, symName: __ZN3std4sync7condvar7Condvar10notify_one17he9539b1cc1447d97E, symObjAddr: 0x30680, symBinAddr: 0xACC84, symSize: 0x28 }
  - { offsetInCU: 0x615F0, offset: 0xB621A, size: 0x8, addend: 0x0, symName: __ZN3std4sync7condvar7Condvar10notify_all17hf9470df7e6153b01E, symObjAddr: 0x306A8, symBinAddr: 0xACCAC, symSize: 0x28 }
  - { offsetInCU: 0x61679, offset: 0xB62A3, size: 0x8, addend: 0x0, symName: '__ZN64_$LT$std..sync..condvar..Condvar$u20$as$u20$core..fmt..Debug$GT$3fmt17haa8dac69e7b30293E', symObjAddr: 0x306D0, symBinAddr: 0xACCD4, symSize: 0x38 }
  - { offsetInCU: 0x616EB, offset: 0xB6315, size: 0x8, addend: 0x0, symName: __ZN3std4sync4mpmc7context7Context3new17hc9461658e99f2b62E, symObjAddr: 0x30708, symBinAddr: 0x1033C0, symSize: 0x188 }
  - { offsetInCU: 0x61A61, offset: 0xB668B, size: 0x8, addend: 0x0, symName: '__ZN69_$LT$std..sync..mpmc..zero..ZeroToken$u20$as$u20$core..fmt..Debug$GT$3fmt17h3942590c84cb72a3E', symObjAddr: 0x30890, symBinAddr: 0xACD0C, symSize: 0x48 }
  - { offsetInCU: 0x61AE8, offset: 0xB6712, size: 0x8, addend: 0x0, symName: '__ZN64_$LT$std..backtrace..Backtrace$u20$as$u20$core..fmt..Display$GT$3fmt17h94ca42b7bcf967b3E', symObjAddr: 0x1C0B8, symBinAddr: 0x98858, symSize: 0x3E0 }
  - { offsetInCU: 0x6207F, offset: 0xB6CA9, size: 0x8, addend: 0x0, symName: '__ZN62_$LT$std..backtrace..Backtrace$u20$as$u20$core..fmt..Debug$GT$3fmt17hc9aa1aef5884ff3dE', symObjAddr: 0x1B6AC, symBinAddr: 0x97E4C, symSize: 0x1C4 }
  - { offsetInCU: 0x62269, offset: 0xB6E93, size: 0x8, addend: 0x0, symName: '__ZN67_$LT$std..backtrace..BacktraceFrame$u20$as$u20$core..fmt..Debug$GT$3fmt17hd755ade9e0b68e53E', symObjAddr: 0x1B870, symBinAddr: 0x98010, symSize: 0x80 }
  - { offsetInCU: 0x62313, offset: 0xB6F3D, size: 0x8, addend: 0x0, symName: '__ZN68_$LT$std..backtrace..BacktraceSymbol$u20$as$u20$core..fmt..Debug$GT$3fmt17h9423a498ce1748d6E', symObjAddr: 0x1B8F0, symBinAddr: 0x98090, symSize: 0x238 }
  - { offsetInCU: 0x62515, offset: 0xB713F, size: 0x8, addend: 0x0, symName: '__ZN64_$LT$std..backtrace..BytesOrWide$u20$as$u20$core..fmt..Debug$GT$3fmt17h4fd6d9497f9ed0b8E', symObjAddr: 0x1BB28, symBinAddr: 0x982C8, symSize: 0xB4 }
  - { offsetInCU: 0x62631, offset: 0xB725B, size: 0x8, addend: 0x0, symName: __ZN3std9backtrace9Backtrace7capture17h252da5c29b52b92aE, symObjAddr: 0x1BBDC, symBinAddr: 0x9837C, symSize: 0x18C }
  - { offsetInCU: 0x628D1, offset: 0xB74FB, size: 0x8, addend: 0x0, symName: __ZN3std9backtrace9Backtrace13force_capture17hefa0115bdb20aa1eE, symObjAddr: 0x1BD68, symBinAddr: 0x98508, symSize: 0x1C }
  - { offsetInCU: 0x628EC, offset: 0xB7516, size: 0x8, addend: 0x0, symName: __ZN3std9backtrace9Backtrace6create17h0f4c826b17375589E, symObjAddr: 0x1BD84, symBinAddr: 0x98524, symSize: 0x164 }
  - { offsetInCU: 0x62C66, offset: 0xB7890, size: 0x8, addend: 0x0, symName: __ZN3std9backtrace9Backtrace6frames17h917540c0fa4c5a32E, symObjAddr: 0x1C024, symBinAddr: 0x987C4, symSize: 0x94 }
  - { offsetInCU: 0x62D28, offset: 0xB7952, size: 0x8, addend: 0x0, symName: '__ZN3std9backtrace9Backtrace6create28_$u7b$$u7b$closure$u7d$$u7d$17h5dd8aaa828e4ff67E', symObjAddr: 0x1BEE8, symBinAddr: 0x98688, symSize: 0x13C }
  - { offsetInCU: 0x62EDA, offset: 0xB7B04, size: 0x8, addend: 0x0, symName: '__ZN3std9backtrace12lazy_resolve28_$u7b$$u7b$closure$u7d$$u7d$28_$u7b$$u7b$closure$u7d$$u7d$17hba527658325a03c7E', symObjAddr: 0x1C498, symBinAddr: 0x98C38, symSize: 0x218 }
  - { offsetInCU: 0x632E5, offset: 0xB7F0F, size: 0x8, addend: 0x0, symName: '__ZN3std10sys_common9backtrace10_print_fmt28_$u7b$$u7b$closure$u7d$$u7d$17hb4eeb7c3b7c9ddc2E', symObjAddr: 0x3293C, symBinAddr: 0xAE5B8, symSize: 0x30 }
  - { offsetInCU: 0x6330F, offset: 0xB7F39, size: 0x8, addend: 0x0, symName: '__ZN3std10sys_common9backtrace10_print_fmt28_$u7b$$u7b$closure$u7d$$u7d$17h31b46d9f05edf873E', symObjAddr: 0x3296C, symBinAddr: 0xAE5E8, symSize: 0x130 }
  - { offsetInCU: 0x63430, offset: 0xB805A, size: 0x8, addend: 0x0, symName: '__ZN3std10sys_common9backtrace10_print_fmt28_$u7b$$u7b$closure$u7d$$u7d$28_$u7b$$u7b$closure$u7d$$u7d$17h1c152d1fe2a9741eE', symObjAddr: 0x32A9C, symBinAddr: 0xAE718, symSize: 0x25C }
  - { offsetInCU: 0x6369E, offset: 0xB82C8, size: 0x8, addend: 0x0, symName: __ZN3std10sys_common9backtrace4lock17h996bfac4ca06de05E, symObjAddr: 0x325C8, symBinAddr: 0xAE244, symSize: 0x70 }
  - { offsetInCU: 0x637EC, offset: 0xB8416, size: 0x8, addend: 0x0, symName: __ZN3std10sys_common9backtrace5print17h5c1cb50114824bbeE, symObjAddr: 0x32638, symBinAddr: 0xAE2B4, symSize: 0x144 }
  - { offsetInCU: 0x63A9C, offset: 0xB86C6, size: 0x8, addend: 0x0, symName: '__ZN91_$LT$std..sys_common..backtrace.._print..DisplayBacktrace$u20$as$u20$core..fmt..Display$GT$3fmt17h0ef14350a43fd0a3E', symObjAddr: 0x3277C, symBinAddr: 0xAE3F8, symSize: 0x1C0 }
  - { offsetInCU: 0x63E71, offset: 0xB8A9B, size: 0x8, addend: 0x0, symName: __ZN3std10sys_common9backtrace26__rust_end_short_backtrace17h75ddceecbed9782eE, symObjAddr: 0x32CF8, symBinAddr: 0xAE974, symSize: 0xC }
  - { offsetInCU: 0x63E8B, offset: 0xB8AB5, size: 0x8, addend: 0x0, symName: __ZN3std10sys_common9backtrace15output_filename17h2be685eafd774553E, symObjAddr: 0x32D04, symBinAddr: 0xAE980, symSize: 0x104 }
  - { offsetInCU: 0x64010, offset: 0xB8C3A, size: 0x8, addend: 0x0, symName: '__ZN3std10sys_common8lazy_box16LazyBox$LT$T$GT$10initialize17h2b4a89a860584299E', symObjAddr: 0x3301C, symBinAddr: 0x103D48, symSize: 0x4C }
  - { offsetInCU: 0x640F4, offset: 0xB8D1E, size: 0x8, addend: 0x0, symName: '__ZN3std10sys_common8lazy_box16LazyBox$LT$T$GT$10initialize17hef1e2394813e91bdE', symObjAddr: 0x33068, symBinAddr: 0x103D94, symSize: 0xBC }
  - { offsetInCU: 0x643AD, offset: 0xB8FD7, size: 0x8, addend: 0x0, symName: '__ZN74_$LT$std..sys_common..net..LookupHost$u20$as$u20$core..ops..drop..Drop$GT$4drop17h95f719d233a2ec1bE', symObjAddr: 0x40E94, symBinAddr: 0xBC1F8, symSize: 0x14 }
  - { offsetInCU: 0x643D5, offset: 0xB8FFF, size: 0x8, addend: 0x0, symName: '__ZN104_$LT$std..sys_common..net..LookupHost$u20$as$u20$core..convert..TryFrom$LT$$LP$$RF$str$C$u16$RP$$GT$$GT$8try_from17h000b2bd22793878cE', symObjAddr: 0x40FEC, symBinAddr: 0xBC350, symSize: 0xB8 }
  - { offsetInCU: 0x64469, offset: 0xB9093, size: 0x8, addend: 0x0, symName: '__ZN104_$LT$std..sys_common..net..LookupHost$u20$as$u20$core..convert..TryFrom$LT$$LP$$RF$str$C$u16$RP$$GT$$GT$8try_from28_$u7b$$u7b$closure$u7d$$u7d$17h85a680394135fb36E', symObjAddr: 0x410A4, symBinAddr: 0xBC408, symSize: 0x218 }
  - { offsetInCU: 0x64B49, offset: 0xB9773, size: 0x8, addend: 0x0, symName: __ZN3std10sys_common3net9TcpStream7connect17h060a871ffc355e8aE, symObjAddr: 0x412BC, symBinAddr: 0xBC620, symSize: 0x130 }
  - { offsetInCU: 0x64B67, offset: 0xB9791, size: 0x8, addend: 0x0, symName: __ZN3std10sys_common3net9TcpStream7connect17h060a871ffc355e8aE, symObjAddr: 0x412BC, symBinAddr: 0xBC620, symSize: 0x130 }
  - { offsetInCU: 0x64C98, offset: 0xB98C2, size: 0x8, addend: 0x0, symName: __ZN3std10sys_common3net9TcpStream9peer_addr17h2c49c0b1f7bd2276E, symObjAddr: 0x413EC, symBinAddr: 0xBC750, symSize: 0x148 }
  - { offsetInCU: 0x64E56, offset: 0xB9A80, size: 0x8, addend: 0x0, symName: '__ZN3std10sys_common3net154_$LT$impl$u20$std..sys_common..IntoInner$LT$$LP$std..sys_common..net..SocketAddrCRepr$C$u32$RP$$GT$$u20$for$u20$$RF$core..net..socket_addr..SocketAddr$GT$10into_inner17hec342207cf02b135E', symObjAddr: 0x41CEC, symBinAddr: 0xBD050, symSize: 0x74 }
  - { offsetInCU: 0x64F8D, offset: 0xB9BB7, size: 0x8, addend: 0x0, symName: __ZN3std10sys_common3net11TcpListener4bind17h8c1db337f66cb703E, symObjAddr: 0x41640, symBinAddr: 0xBC9A4, symSize: 0x14C }
  - { offsetInCU: 0x650EC, offset: 0xB9D16, size: 0x8, addend: 0x0, symName: __ZN3std10sys_common3net11TcpListener11socket_addr17h3dbb20fedf8b067bE, symObjAddr: 0x4178C, symBinAddr: 0xBCAF0, symSize: 0x148 }
  - { offsetInCU: 0x65389, offset: 0xB9FB3, size: 0x8, addend: 0x0, symName: __ZN3std10sys_common3net9UdpSocket4bind17h4a9b8ab679ecc28bE, symObjAddr: 0x41990, symBinAddr: 0xBCCF4, symSize: 0x10C }
  - { offsetInCU: 0x6550F, offset: 0xBA139, size: 0x8, addend: 0x0, symName: __ZN3std10sys_common3net9UdpSocket7send_to17hbcd462b11689fefcE, symObjAddr: 0x41A9C, symBinAddr: 0xBCE00, symSize: 0xA0 }
  - { offsetInCU: 0x6552E, offset: 0xBA158, size: 0x8, addend: 0x0, symName: __ZN3std10sys_common3net9UdpSocket7send_to17hbcd462b11689fefcE, symObjAddr: 0x41A9C, symBinAddr: 0xBCE00, symSize: 0xA0 }
  - { offsetInCU: 0x6560D, offset: 0xBA237, size: 0x8, addend: 0x0, symName: __ZN3std10sys_common3net9UdpSocket7connect17hb4857cbe17481765E, symObjAddr: 0x41B3C, symBinAddr: 0xBCEA0, symSize: 0xF4 }
  - { offsetInCU: 0x6562C, offset: 0xBA256, size: 0x8, addend: 0x0, symName: __ZN3std10sys_common3net9UdpSocket7connect17hb4857cbe17481765E, symObjAddr: 0x41B3C, symBinAddr: 0xBCEA0, symSize: 0xF4 }
  - { offsetInCU: 0x65765, offset: 0xBA38F, size: 0x8, addend: 0x0, symName: '__ZN91_$LT$std..sys_common..net..LookupHost$u20$as$u20$core..iter..traits..iterator..Iterator$GT$4next17heb334415952b37a8E', symObjAddr: 0x40D48, symBinAddr: 0xBC0AC, symSize: 0x14C }
  - { offsetInCU: 0x65850, offset: 0xBA47A, size: 0x8, addend: 0x0, symName: '__ZN90_$LT$std..sys_common..net..LookupHost$u20$as$u20$core..convert..TryFrom$LT$$RF$str$GT$$GT$8try_from17h1148d5ebf295c5caE', symObjAddr: 0x40EA8, symBinAddr: 0xBC20C, symSize: 0x144 }
  - { offsetInCU: 0x65A07, offset: 0xBA631, size: 0x8, addend: 0x0, symName: '__ZN68_$LT$std..sys_common..net..TcpStream$u20$as$u20$core..fmt..Debug$GT$3fmt17h1f7523712ad6141cE', symObjAddr: 0x41534, symBinAddr: 0xBC898, symSize: 0x10C }
  - { offsetInCU: 0x65ADA, offset: 0xBA704, size: 0x8, addend: 0x0, symName: '__ZN70_$LT$std..sys_common..net..TcpListener$u20$as$u20$core..fmt..Debug$GT$3fmt17hb3dd30423c4e1bf4E', symObjAddr: 0x418D4, symBinAddr: 0xBCC38, symSize: 0xBC }
  - { offsetInCU: 0x65B6E, offset: 0xBA798, size: 0x8, addend: 0x0, symName: '__ZN68_$LT$std..sys_common..net..UdpSocket$u20$as$u20$core..fmt..Debug$GT$3fmt17haff66074c4603a7dE', symObjAddr: 0x41C30, symBinAddr: 0xBCF94, symSize: 0xBC }
  - { offsetInCU: 0x65C30, offset: 0xBA85A, size: 0x8, addend: 0x0, symName: __ZN3std10sys_common7process10CommandEnv3set17h6b3a87cb6e1c83e4E, symObjAddr: 0x331A8, symBinAddr: 0xAED1C, symSize: 0x1A0 }
  - { offsetInCU: 0x660AB, offset: 0xBACD5, size: 0x8, addend: 0x0, symName: __ZN3std10sys_common7process10CommandEnv6remove17h0692b5688a82e40cE, symObjAddr: 0x33348, symBinAddr: 0xAEEBC, symSize: 0x3B4 }
  - { offsetInCU: 0x66C38, offset: 0xBB862, size: 0x8, addend: 0x0, symName: '__ZN73_$LT$std..sys_common..process..CommandEnv$u20$as$u20$core..fmt..Debug$GT$3fmt17h8199650b2641d660E', symObjAddr: 0x33124, symBinAddr: 0xAEC98, symSize: 0x84 }
  - { offsetInCU: 0x66C6D, offset: 0xBB897, size: 0x8, addend: 0x0, symName: '__ZN96_$LT$std..sys_common..process..CommandEnvs$u20$as$u20$core..iter..traits..iterator..Iterator$GT$4next17h8b48c941bf154453E', symObjAddr: 0x336FC, symBinAddr: 0xAF270, symSize: 0x50 }
  - { offsetInCU: 0x66CF0, offset: 0xBB91A, size: 0x8, addend: 0x0, symName: __ZN3std10sys_common2fs10try_exists17hbaf3eaf30e6e5207E, symObjAddr: 0x32E08, symBinAddr: 0xAEA84, symSize: 0x214 }
  - { offsetInCU: 0x66D6D, offset: 0xBB997, size: 0x8, addend: 0x0, symName: '__ZN91_$LT$std..sys_common..wstr..WStrUnits$u20$as$u20$core..iter..traits..iterator..Iterator$GT$4next17hfe11a0405ec41b3bE', symObjAddr: 0x3374C, symBinAddr: 0xAF2C0, symSize: 0x28 }
  - { offsetInCU: 0x66DE2, offset: 0xBBA0C, size: 0x8, addend: 0x0, symName: __ZN3std10sys_common4wtf87Wtf8Buf25push_code_point_unchecked17hcefa896fc79ff4e9E, symObjAddr: 0x3378C, symBinAddr: 0xAF300, symSize: 0x11C }
  - { offsetInCU: 0x66F23, offset: 0xBBB4D, size: 0x8, addend: 0x0, symName: '__ZN74_$LT$std..sys_common..wtf8..Wtf8Buf$u20$as$u20$core..ops..deref..Deref$GT$5deref17hae65673a8eda4bbeE', symObjAddr: 0x33774, symBinAddr: 0xAF2E8, symSize: 0x0 }
  - { offsetInCU: 0x66FC1, offset: 0xBBBEB, size: 0x8, addend: 0x0, symName: '__ZN64_$LT$std..sys_common..wtf8..Wtf8$u20$as$u20$core..fmt..Debug$GT$3fmt17heb9e810d898a9d91E', symObjAddr: 0x338A8, symBinAddr: 0xAF41C, symSize: 0x21C }
  - { offsetInCU: 0x6724D, offset: 0xBBE77, size: 0x8, addend: 0x0, symName: '__ZN64_$LT$std..sys_common..wtf8..Wtf8$u20$as$u20$core..fmt..Debug$GT$3fmt17write_str_escaped17hee5beb51ff1e8b70E', symObjAddr: 0x33AC4, symBinAddr: 0xAF638, symSize: 0x314 }
  - { offsetInCU: 0x677B3, offset: 0xBC3DD, size: 0x8, addend: 0x0, symName: '__ZN66_$LT$std..sys_common..wtf8..Wtf8$u20$as$u20$core..fmt..Display$GT$3fmt17hfb6c48d8a1516043E', symObjAddr: 0x33DD8, symBinAddr: 0xAF94C, symSize: 0x1E4 }
  - { offsetInCU: 0x67961, offset: 0xBC58B, size: 0x8, addend: 0x0, symName: __ZN3std10sys_common4wtf816slice_error_fail17h71a527c68ee879e9E, symObjAddr: 0x33FBC, symBinAddr: 0xAFB30, symSize: 0x8C }
  - { offsetInCU: 0x67A2C, offset: 0xBC656, size: 0x8, addend: 0x0, symName: __ZN3std9panicking11panic_count8increase17h55db2394a8c3d7a9E, symObjAddr: 0x34D6C, symBinAddr: 0xB08E0, symSize: 0x80 }
  - { offsetInCU: 0x67B31, offset: 0xBC75B, size: 0x8, addend: 0x0, symName: __ZN3std9panicking11panic_count19finished_panic_hook17h0d680ae893280870E, symObjAddr: 0x34DEC, symBinAddr: 0xB0960, symSize: 0x24 }
  - { offsetInCU: 0x67BE6, offset: 0xBC810, size: 0x8, addend: 0x0, symName: __ZN3std9panicking11panic_count8decrease17h377960e61731e25bE, symObjAddr: 0x34E10, symBinAddr: 0xB0984, symSize: 0x50 }
  - { offsetInCU: 0x67CDE, offset: 0xBC908, size: 0x8, addend: 0x0, symName: __ZN3std9panicking11panic_count9get_count17h506248a403913d6aE, symObjAddr: 0x34E60, symBinAddr: 0xB09D4, symSize: 0x24 }
  - { offsetInCU: 0x67D35, offset: 0xBC95F, size: 0x8, addend: 0x0, symName: __ZN3std9panicking11panic_count17is_zero_slow_path17h139160bcdf2ef416E, symObjAddr: 0x34E84, symBinAddr: 0x103E50, symSize: 0x2C }
  - { offsetInCU: 0x67E28, offset: 0xBCA52, size: 0x8, addend: 0x0, symName: __ZN3std9panicking3try7cleanup17h5b16c51f3b0e3e6bE, symObjAddr: 0x34EB0, symBinAddr: 0x103E7C, symSize: 0x5C }
  - { offsetInCU: 0x67F8C, offset: 0xBCBB6, size: 0x8, addend: 0x0, symName: ___rust_drop_panic, symObjAddr: 0x3434C, symBinAddr: 0xAFEC0, symSize: 0x9C }
  - { offsetInCU: 0x68033, offset: 0xBCC5D, size: 0x8, addend: 0x0, symName: ___rust_foreign_exception, symObjAddr: 0x343E8, symBinAddr: 0xAFF5C, symSize: 0x9C }
  - { offsetInCU: 0x680E8, offset: 0xBCD12, size: 0x8, addend: 0x0, symName: __ZN3std9panicking8set_hook17he7daa21a5a1079f6E, symObjAddr: 0x34484, symBinAddr: 0xAFFF8, symSize: 0x194 }
  - { offsetInCU: 0x68499, offset: 0xBD0C3, size: 0x8, addend: 0x0, symName: __ZN3std9panicking9take_hook17h65699dc216330ed9E, symObjAddr: 0x34618, symBinAddr: 0xB018C, symSize: 0x114 }
  - { offsetInCU: 0x6875C, offset: 0xBD386, size: 0x8, addend: 0x0, symName: '__ZN3std9panicking12default_hook28_$u7b$$u7b$closure$u7d$$u7d$17h05f4d624abaa0fcdE', symObjAddr: 0x34C3C, symBinAddr: 0xB07B0, symSize: 0x130 }
  - { offsetInCU: 0x68819, offset: 0xBD443, size: 0x8, addend: 0x0, symName: __ZN3std9panicking12default_hook17h1201c731f33f02ccE, symObjAddr: 0x3472C, symBinAddr: 0xB02A0, symSize: 0x510 }
  - { offsetInCU: 0x6962A, offset: 0xBE254, size: 0x8, addend: 0x0, symName: _rust_begin_unwind, symObjAddr: 0x34F0C, symBinAddr: 0xB09F8, symSize: 0x34 }
  - { offsetInCU: 0x696D3, offset: 0xBE2FD, size: 0x8, addend: 0x0, symName: '__ZN102_$LT$std..panicking..begin_panic_handler..FormatStringPayload$u20$as$u20$core..panic..PanicPayload$GT$8take_box17h49e627da9a044e77E', symObjAddr: 0x34F40, symBinAddr: 0xB0A2C, symSize: 0xF8 }
  - { offsetInCU: 0x69953, offset: 0xBE57D, size: 0x8, addend: 0x0, symName: '__ZN102_$LT$std..panicking..begin_panic_handler..FormatStringPayload$u20$as$u20$core..panic..PanicPayload$GT$3get17h805deb0a0f63c3a5E', symObjAddr: 0x35038, symBinAddr: 0xB0B24, symSize: 0x98 }
  - { offsetInCU: 0x69A74, offset: 0xBE69E, size: 0x8, addend: 0x0, symName: '__ZN99_$LT$std..panicking..begin_panic_handler..StaticStrPayload$u20$as$u20$core..panic..PanicPayload$GT$8take_box17h9bffcdc5b690c217E', symObjAddr: 0x350D0, symBinAddr: 0xB0BBC, symSize: 0x50 }
  - { offsetInCU: 0x69B05, offset: 0xBE72F, size: 0x8, addend: 0x0, symName: '__ZN99_$LT$std..panicking..begin_panic_handler..StaticStrPayload$u20$as$u20$core..panic..PanicPayload$GT$3get17h7dd8bb2702a0aa39E', symObjAddr: 0x35120, symBinAddr: 0xB0C0C, symSize: 0x18 }
  - { offsetInCU: 0x69B21, offset: 0xBE74B, size: 0x8, addend: 0x0, symName: '__ZN3std9panicking19begin_panic_handler28_$u7b$$u7b$closure$u7d$$u7d$17hfa05cb93c157223cE', symObjAddr: 0x35138, symBinAddr: 0xB0C24, symSize: 0xCC }
  - { offsetInCU: 0x69CB2, offset: 0xBE8DC, size: 0x8, addend: 0x0, symName: __ZN3std9panicking20rust_panic_with_hook17h7b52f766a12860e1E, symObjAddr: 0x35204, symBinAddr: 0xB0CF0, symSize: 0x90C }
  - { offsetInCU: 0x6B3C4, offset: 0xBFFEE, size: 0x8, addend: 0x0, symName: __ZN3std9panicking23rust_panic_without_hook17hdb108e422265b827E, symObjAddr: 0x35B10, symBinAddr: 0xB15FC, symSize: 0xD0 }
  - { offsetInCU: 0x6B5F4, offset: 0xC021E, size: 0x8, addend: 0x0, symName: '__ZN96_$LT$std..panicking..rust_panic_without_hook..RewrapBox$u20$as$u20$core..panic..PanicPayload$GT$8take_box17h272e9a623645496bE', symObjAddr: 0x35BE0, symBinAddr: 0xB16CC, symSize: 0x28 }
  - { offsetInCU: 0x6B653, offset: 0xC027D, size: 0x8, addend: 0x0, symName: '__ZN96_$LT$std..panicking..rust_panic_without_hook..RewrapBox$u20$as$u20$core..panic..PanicPayload$GT$3get17hb8afe2064c4ae79dE', symObjAddr: 0x35C08, symBinAddr: 0xB16F4, symSize: 0x18 }
  - { offsetInCU: 0x6B670, offset: 0xC029A, size: 0x8, addend: 0x0, symName: _rust_panic, symObjAddr: 0x35C20, symBinAddr: 0xB170C, symSize: 0x60 }
  - { offsetInCU: 0x6B6D4, offset: 0xC02FE, size: 0x8, addend: 0x0, symName: '__ZN65_$LT$std..thread..PanicGuard$u20$as$u20$core..ops..drop..Drop$GT$4drop17h11eacdb566a553faE', symObjAddr: 0x1B044, symBinAddr: 0x9781C, symSize: 0x44 }
  - { offsetInCU: 0x6B73D, offset: 0xC0367, size: 0x8, addend: 0x0, symName: __ZN3std6thread6Thread3new17hb2871c914557dec6E, symObjAddr: 0x1B3B0, symBinAddr: 0x97B50, symSize: 0x2C }
  - { offsetInCU: 0x6B758, offset: 0xC0382, size: 0x8, addend: 0x0, symName: __ZN3std6thread6Thread11new_unnamed17h9ceac63bddb8144dE, symObjAddr: 0x1B3DC, symBinAddr: 0x97B7C, symSize: 0x28 }
  - { offsetInCU: 0x6B76C, offset: 0xC0396, size: 0x8, addend: 0x0, symName: __ZN3std6thread6Thread9new_inner17h795a43891f8f1d8fE, symObjAddr: 0x1B404, symBinAddr: 0x97BA4, symSize: 0x154 }
  - { offsetInCU: 0x6BA0D, offset: 0xC0637, size: 0x8, addend: 0x0, symName: __ZN3std6thread6Thread4name17h138bfdfadef5dc95E, symObjAddr: 0x1B558, symBinAddr: 0x97CF8, symSize: 0x44 }
  - { offsetInCU: 0x6BB1A, offset: 0xC0744, size: 0x8, addend: 0x0, symName: __ZN3std6thread7CURRENT7__getit7destroy17h939aa592e99e1a1cE, symObjAddr: 0x48B4C, symBinAddr: 0xC3EB0, symSize: 0x54 }
  - { offsetInCU: 0x6BD89, offset: 0xC09B3, size: 0x8, addend: 0x0, symName: '__ZN68_$LT$std..thread..local..AccessError$u20$as$u20$core..fmt..Debug$GT$3fmt17hf08446be166ec49cE', symObjAddr: 0x1AAB0, symBinAddr: 0x97288, symSize: 0x38 }
  - { offsetInCU: 0x6BDAA, offset: 0xC09D4, size: 0x8, addend: 0x0, symName: '__ZN70_$LT$std..thread..local..AccessError$u20$as$u20$core..fmt..Display$GT$3fmt17h0b2aa9cf7d079db6E', symObjAddr: 0x1AAE8, symBinAddr: 0x972C0, symSize: 0x20 }
  - { offsetInCU: 0x6BE03, offset: 0xC0A2D, size: 0x8, addend: 0x0, symName: __ZN3std6thread6scoped9ScopeData29increment_num_running_threads17h35771bf53b61ed7fE, symObjAddr: 0x1A944, symBinAddr: 0x9715C, symSize: 0x20 }
  - { offsetInCU: 0x6BE21, offset: 0xC0A4B, size: 0x8, addend: 0x0, symName: __ZN3std6thread6scoped9ScopeData29increment_num_running_threads17h35771bf53b61ed7fE, symObjAddr: 0x1A944, symBinAddr: 0x9715C, symSize: 0x20 }
  - { offsetInCU: 0x6BE36, offset: 0xC0A60, size: 0x8, addend: 0x0, symName: __ZN3std6thread6scoped9ScopeData29increment_num_running_threads17h35771bf53b61ed7fE, symObjAddr: 0x1A944, symBinAddr: 0x9715C, symSize: 0x20 }
  - { offsetInCU: 0x6BE60, offset: 0xC0A8A, size: 0x8, addend: 0x0, symName: __ZN3std6thread6scoped9ScopeData8overflow17h064c784fad38d690E, symObjAddr: 0x1A964, symBinAddr: 0x1031AC, symSize: 0x40 }
  - { offsetInCU: 0x6BE90, offset: 0xC0ABA, size: 0x8, addend: 0x0, symName: __ZN3std6thread6scoped9ScopeData29decrement_num_running_threads17h93fb5a4bc4ce12faE, symObjAddr: 0x1A9A4, symBinAddr: 0x9717C, symSize: 0x54 }
  - { offsetInCU: 0x6BFDA, offset: 0xC0C04, size: 0x8, addend: 0x0, symName: '__ZN63_$LT$std..thread..scoped..Scope$u20$as$u20$core..fmt..Debug$GT$3fmt17hff0d5c90c0d4dcacE', symObjAddr: 0x1A9F8, symBinAddr: 0x971D0, symSize: 0xB8 }
  - { offsetInCU: 0x6C09C, offset: 0xC0CC6, size: 0x8, addend: 0x0, symName: __ZN3std6thread7Builder4name17hdd6503cb56ffa5e6E, symObjAddr: 0x1AB08, symBinAddr: 0x972E0, symSize: 0x84 }
  - { offsetInCU: 0x6C166, offset: 0xC0D90, size: 0x8, addend: 0x0, symName: __ZN3std6thread11set_current17h89c184448c1504eaE, symObjAddr: 0x1AB8C, symBinAddr: 0x97364, symSize: 0x158 }
  - { offsetInCU: 0x6C4E7, offset: 0xC1111, size: 0x8, addend: 0x0, symName: __ZN3std6thread7current17h2d2cf93ed92e7a0eE, symObjAddr: 0x1ACE4, symBinAddr: 0x974BC, symSize: 0xD0 }
  - { offsetInCU: 0x6C682, offset: 0xC12AC, size: 0x8, addend: 0x0, symName: __ZN3std6thread9yield_now17h0f2a6f51a80570cdE, symObjAddr: 0x1ADB4, symBinAddr: 0x9758C, symSize: 0x10 }
  - { offsetInCU: 0x6C6C2, offset: 0xC12EC, size: 0x8, addend: 0x0, symName: __ZN3std6thread8sleep_ms17he69487596534acfaE, symObjAddr: 0x1ADC4, symBinAddr: 0x9759C, symSize: 0xDC }
  - { offsetInCU: 0x6C762, offset: 0xC138C, size: 0x8, addend: 0x0, symName: __ZN3std6thread5sleep17h6bbb3eb00b30f693E, symObjAddr: 0x1AEA0, symBinAddr: 0x97678, symSize: 0xB8 }
  - { offsetInCU: 0x6C7DE, offset: 0xC1408, size: 0x8, addend: 0x0, symName: __ZN3std6thread11sleep_until17haca5418fc522a741E, symObjAddr: 0x1AF58, symBinAddr: 0x97730, symSize: 0xEC }
  - { offsetInCU: 0x6C8EF, offset: 0xC1519, size: 0x8, addend: 0x0, symName: __ZN3std6thread4park17h61c21434e3d1f4edE, symObjAddr: 0x1B088, symBinAddr: 0x97860, symSize: 0x130 }
  - { offsetInCU: 0x6CC50, offset: 0xC187A, size: 0x8, addend: 0x0, symName: __ZN3std6thread15park_timeout_ms17h6cb436f3a178ddddE, symObjAddr: 0x1B1B8, symBinAddr: 0x97990, symSize: 0x38 }
  - { offsetInCU: 0x6CC82, offset: 0xC18AC, size: 0x8, addend: 0x0, symName: __ZN3std6thread12park_timeout17hf073aafceab29854E, symObjAddr: 0x1B1F0, symBinAddr: 0x979C8, symSize: 0x188 }
  - { offsetInCU: 0x6D020, offset: 0xC1C4A, size: 0x8, addend: 0x0, symName: __ZN3std6thread8ThreadId3new9exhausted17hc14b1408744b74f6E, symObjAddr: 0x1B378, symBinAddr: 0x1031EC, symSize: 0x38 }
  - { offsetInCU: 0x6D06E, offset: 0xC1C98, size: 0x8, addend: 0x0, symName: '__ZN56_$LT$std..thread..Thread$u20$as$u20$core..fmt..Debug$GT$3fmt17h923be027025de4fdE', symObjAddr: 0x1B59C, symBinAddr: 0x97D3C, symSize: 0xC0 }
  - { offsetInCU: 0x6D185, offset: 0xC1DAF, size: 0x8, addend: 0x0, symName: __ZN3std6thread21available_parallelism17hb93b90ef444050b7E, symObjAddr: 0x1B65C, symBinAddr: 0x97DFC, symSize: 0x50 }
  - { offsetInCU: 0x6D242, offset: 0xC1E6C, size: 0x8, addend: 0x0, symName: '__ZN58_$LT$std..thread..ThreadId$u20$as$u20$core..fmt..Debug$GT$3fmt17hdcbc679fbe512c8fE', symObjAddr: 0x364E0, symBinAddr: 0xB1FCC, symSize: 0x40 }
  - { offsetInCU: 0x6D298, offset: 0xC1EC2, size: 0x8, addend: 0x0, symName: '__ZN89_$LT$std..backtrace_rs..symbolize..gimli..mmap..Mmap$u20$as$u20$core..ops..drop..Drop$GT$4drop17h10a2f201a13e929eE', symObjAddr: 0x47664, symBinAddr: 0xC29C8, symSize: 0x18 }
  - { offsetInCU: 0x6D2C7, offset: 0xC1EF1, size: 0x8, addend: 0x0, symName: '__ZN91_$LT$std..backtrace_rs..symbolize..gimli..mmap..Mmap$u20$as$u20$core..ops..deref..Deref$GT$5deref17h18f997deeeae0e29E', symObjAddr: 0x4764C, symBinAddr: 0xC29B0, symSize: 0x18 }
  - { offsetInCU: 0x6D37F, offset: 0xC1FA9, size: 0x8, addend: 0x0, symName: __ZN3std12backtrace_rs9symbolize5gimli7Context3new17h252ff59eeb7630bbE, symObjAddr: 0x42044, symBinAddr: 0xBD3A8, symSize: 0x2E38 }
  - { offsetInCU: 0x72613, offset: 0xC723D, size: 0x8, addend: 0x0, symName: __ZN3std12backtrace_rs9symbolize5gimli7Context11find_frames17hbb96c2564c71088cE, symObjAddr: 0x44E7C, symBinAddr: 0xC01E0, symSize: 0x404 }
  - { offsetInCU: 0x72A30, offset: 0xC765A, size: 0x8, addend: 0x0, symName: __ZN3std12backtrace_rs9symbolize5gimli5macho6Object5parse17h956a4e67ffb34caaE, symObjAddr: 0x47898, symBinAddr: 0xC2BFC, symSize: 0x1138 }
  - { offsetInCU: 0x74A69, offset: 0xC9693, size: 0x8, addend: 0x0, symName: __ZN3std12backtrace_rs9symbolize5gimli5macho6Object7section17h5811bf3d30a2db4cE, symObjAddr: 0x489D0, symBinAddr: 0xC3D34, symSize: 0x17C }
  - { offsetInCU: 0x74D82, offset: 0xC99AC, size: 0x8, addend: 0x0, symName: __ZN3std12backtrace_rs9symbolize5gimli5macho11find_header17h76c876365d2a5f8cE, symObjAddr: 0x4767C, symBinAddr: 0xC29E0, symSize: 0x21C }
  - { offsetInCU: 0x753DB, offset: 0xCA005, size: 0x8, addend: 0x0, symName: __ZN3std12backtrace_rs9symbolize5gimli4mmap17h14788ae8c6704aa7E, symObjAddr: 0x45280, symBinAddr: 0xC05E4, symSize: 0x1DC }
  - { offsetInCU: 0x75920, offset: 0xCA54A, size: 0x8, addend: 0x0, symName: __ZN3std12backtrace_rs9symbolize5gimli7resolve17hb5ca67698937a84dE, symObjAddr: 0x4545C, symBinAddr: 0xC07C0, symSize: 0x21F0 }
  - { offsetInCU: 0x79E2C, offset: 0xCEA56, size: 0x8, addend: 0x0, symName: __ZN3std12backtrace_rs9symbolize6Symbol4name17h1e4e10d8e2e4ae4dE, symObjAddr: 0x35D58, symBinAddr: 0xB1844, symSize: 0xE4 }
  - { offsetInCU: 0x79F60, offset: 0xCEB8A, size: 0x8, addend: 0x0, symName: __ZN3std12backtrace_rs9symbolize6Symbol12filename_raw17he305050b59290433E, symObjAddr: 0x35E3C, symBinAddr: 0xB1928, symSize: 0x44 }
  - { offsetInCU: 0x79FA1, offset: 0xCEBCB, size: 0x8, addend: 0x0, symName: __ZN3std12backtrace_rs9symbolize6Symbol5colno17he7b7ddca3218a820E, symObjAddr: 0x35E80, symBinAddr: 0xB196C, symSize: 0x20 }
  - { offsetInCU: 0x79FCB, offset: 0xCEBF5, size: 0x8, addend: 0x0, symName: __ZN3std12backtrace_rs9symbolize6Symbol6lineno17hb1167aa47664e9f0E, symObjAddr: 0x35EA0, symBinAddr: 0xB198C, symSize: 0x1C }
  - { offsetInCU: 0x7A023, offset: 0xCEC4D, size: 0x8, addend: 0x0, symName: '__ZN73_$LT$std..backtrace_rs..symbolize..Symbol$u20$as$u20$core..fmt..Debug$GT$3fmt17h9d077f09bda6a7e8E', symObjAddr: 0x35EBC, symBinAddr: 0xB19A8, symSize: 0xFC }
  - { offsetInCU: 0x7A096, offset: 0xCECC0, size: 0x8, addend: 0x0, symName: '__ZN79_$LT$std..backtrace_rs..symbolize..SymbolName$u20$as$u20$core..fmt..Display$GT$3fmt17h6af77456a4302079E', symObjAddr: 0x41E44, symBinAddr: 0xBD1A8, symSize: 0x100 }
  - { offsetInCU: 0x7A16B, offset: 0xCED95, size: 0x8, addend: 0x0, symName: '__ZN77_$LT$std..backtrace_rs..symbolize..SymbolName$u20$as$u20$core..fmt..Debug$GT$3fmt17ha07d7f07c5dd60b7E', symObjAddr: 0x41F44, symBinAddr: 0xBD2A8, symSize: 0x100 }
  - { offsetInCU: 0x7A2B6, offset: 0xCEEE0, size: 0x8, addend: 0x0, symName: '__ZN85_$LT$std..backtrace_rs..backtrace..libunwind..Frame$u20$as$u20$core..clone..Clone$GT$5clone17hefb4a227f92d6a63E', symObjAddr: 0x41DA4, symBinAddr: 0xBD108, symSize: 0x64 }
  - { offsetInCU: 0x7A324, offset: 0xCEF4E, size: 0x8, addend: 0x0, symName: __ZN3std12backtrace_rs9backtrace9libunwind5trace8trace_fn17hd0c499171baf1f1dE, symObjAddr: 0x41E08, symBinAddr: 0xBD16C, symSize: 0x3C }
  - { offsetInCU: 0x7A3AB, offset: 0xCEFD5, size: 0x8, addend: 0x0, symName: '__ZN72_$LT$std..backtrace_rs..backtrace..Frame$u20$as$u20$core..fmt..Debug$GT$3fmt17hc0ab982dff135852E', symObjAddr: 0x35C80, symBinAddr: 0xB176C, symSize: 0xD8 }
  - { offsetInCU: 0x7A4BF, offset: 0xCF0E9, size: 0x8, addend: 0x0, symName: __ZN3std12backtrace_rs5print17BacktraceFrameFmt21print_raw_with_column17h19ccbbde86789040E, symObjAddr: 0x35FB8, symBinAddr: 0xB1AA4, symSize: 0x4E4 }
  - { offsetInCU: 0x7A79F, offset: 0xCF3C9, size: 0x8, addend: 0x0, symName: '__ZN65_$LT$std..backtrace_rs..Bomb$u20$as$u20$core..ops..drop..Drop$GT$4drop17h12a9e1917d499abcE', symObjAddr: 0x3649C, symBinAddr: 0xB1F88, symSize: 0x44 }
  - { offsetInCU: 0x7A7D7, offset: 0xCF401, size: 0x8, addend: 0x0, symName: __ZN3std2rt7cleanup17h261ebb0af21b4a1bE, symObjAddr: 0x1A50C, symBinAddr: 0x96D24, symSize: 0x64 }
  - { offsetInCU: 0x7A7FC, offset: 0xCF426, size: 0x8, addend: 0x0, symName: __ZN3std2rt7cleanup17h261ebb0af21b4a1bE, symObjAddr: 0x1A50C, symBinAddr: 0x96D24, symSize: 0x64 }
  - { offsetInCU: 0x7A811, offset: 0xCF43B, size: 0x8, addend: 0x0, symName: __ZN3std2rt7cleanup17h261ebb0af21b4a1bE, symObjAddr: 0x1A50C, symBinAddr: 0x96D24, symSize: 0x64 }
  - { offsetInCU: 0x7A826, offset: 0xCF450, size: 0x8, addend: 0x0, symName: __ZN3std2rt7cleanup17h261ebb0af21b4a1bE, symObjAddr: 0x1A50C, symBinAddr: 0x96D24, symSize: 0x64 }
  - { offsetInCU: 0x7A869, offset: 0xCF493, size: 0x8, addend: 0x0, symName: '__ZN3std2rt19lang_start_internal28_$u7b$$u7b$closure$u7d$$u7d$17h7beb13b05a40210fE', symObjAddr: 0x1A8BC, symBinAddr: 0x970D4, symSize: 0x44 }
  - { offsetInCU: 0x7A899, offset: 0xCF4C3, size: 0x8, addend: 0x0, symName: '__ZN3std2rt19lang_start_internal28_$u7b$$u7b$closure$u7d$$u7d$17h0133d38d2f2bd159E', symObjAddr: 0x1A900, symBinAddr: 0x97118, symSize: 0x44 }
  - { offsetInCU: 0x7A8D7, offset: 0xCF501, size: 0x8, addend: 0x0, symName: __ZN3std2rt19lang_start_internal17h89f626806c11e0aeE, symObjAddr: 0x1A570, symBinAddr: 0x96D88, symSize: 0x34C }
  - { offsetInCU: 0x7AEAC, offset: 0xCFAD6, size: 0x8, addend: 0x0, symName: __ZN3std5panic13resume_unwind17hb5d80a251626bcccE, symObjAddr: 0x2C494, symBinAddr: 0xA8AA4, symSize: 0xC }
  - { offsetInCU: 0x7AEC6, offset: 0xCFAF0, size: 0x8, addend: 0x0, symName: __ZN3std5panic12always_abort17h80839e13b52f621cE, symObjAddr: 0x2C4A0, symBinAddr: 0xA8AB0, symSize: 0x0 }
  - { offsetInCU: 0x7AF3F, offset: 0xCFB69, size: 0x8, addend: 0x0, symName: __ZN3std5panic19set_backtrace_style17h4db3e6ac7c24177cE, symObjAddr: 0x2C4C0, symBinAddr: 0xA8AD0, symSize: 0x20 }
  - { offsetInCU: 0x7AFBA, offset: 0xCFBE4, size: 0x8, addend: 0x0, symName: __ZN3std5panic19get_backtrace_style17had7f6219b908a4b5E, symObjAddr: 0x2C4E0, symBinAddr: 0xA8AF0, symSize: 0x194 }
  - { offsetInCU: 0x7B39C, offset: 0xCFFC6, size: 0x8, addend: 0x0, symName: __ZN3std4time7Instant3now17hf96ca5dc6db8e40cE, symObjAddr: 0x31514, symBinAddr: 0xAD85C, symSize: 0x14 }
  - { offsetInCU: 0x7B3C7, offset: 0xCFFF1, size: 0x8, addend: 0x0, symName: __ZN3std4time7Instant14duration_since17h80484fcafd7d3a6fE, symObjAddr: 0x31528, symBinAddr: 0xAD870, symSize: 0x0 }
  - { offsetInCU: 0x7B436, offset: 0xD0060, size: 0x8, addend: 0x0, symName: __ZN3std4time7Instant22checked_duration_since17h097e734d6a6f372cE, symObjAddr: 0x31570, symBinAddr: 0xAD8B8, symSize: 0x4C }
  - { offsetInCU: 0x7B478, offset: 0xD00A2, size: 0x8, addend: 0x0, symName: __ZN3std4time7Instant7elapsed17he07e6b9aaf9c3ce1E, symObjAddr: 0x315BC, symBinAddr: 0xAD904, symSize: 0x68 }
  - { offsetInCU: 0x7B573, offset: 0xD019D, size: 0x8, addend: 0x0, symName: '__ZN60_$LT$std..time..Instant$u20$as$u20$core..ops..arith..Sub$GT$3sub17he7efd4eb4baf961bE', symObjAddr: 0x31804, symBinAddr: 0xADB4C, symSize: 0x4C }
  - { offsetInCU: 0x7B600, offset: 0xD022A, size: 0x8, addend: 0x0, symName: '__ZN88_$LT$std..time..Instant$u20$as$u20$core..ops..arith..Add$LT$core..time..Duration$GT$$GT$3add17h62232f00c6a0e3e1E', symObjAddr: 0x31624, symBinAddr: 0xAD96C, symSize: 0x70 }
  - { offsetInCU: 0x7B618, offset: 0xD0242, size: 0x8, addend: 0x0, symName: '__ZN88_$LT$std..time..Instant$u20$as$u20$core..ops..arith..Add$LT$core..time..Duration$GT$$GT$3add17h62232f00c6a0e3e1E', symObjAddr: 0x31624, symBinAddr: 0xAD96C, symSize: 0x70 }
  - { offsetInCU: 0x7B62E, offset: 0xD0258, size: 0x8, addend: 0x0, symName: '__ZN88_$LT$std..time..Instant$u20$as$u20$core..ops..arith..Add$LT$core..time..Duration$GT$$GT$3add17h62232f00c6a0e3e1E', symObjAddr: 0x31624, symBinAddr: 0xAD96C, symSize: 0x70 }
  - { offsetInCU: 0x7B644, offset: 0xD026E, size: 0x8, addend: 0x0, symName: '__ZN88_$LT$std..time..Instant$u20$as$u20$core..ops..arith..Add$LT$core..time..Duration$GT$$GT$3add17h62232f00c6a0e3e1E', symObjAddr: 0x31624, symBinAddr: 0xAD96C, symSize: 0x70 }
  - { offsetInCU: 0x7B65A, offset: 0xD0284, size: 0x8, addend: 0x0, symName: '__ZN88_$LT$std..time..Instant$u20$as$u20$core..ops..arith..Add$LT$core..time..Duration$GT$$GT$3add17h62232f00c6a0e3e1E', symObjAddr: 0x31624, symBinAddr: 0xAD96C, symSize: 0x70 }
  - { offsetInCU: 0x7B66F, offset: 0xD0299, size: 0x8, addend: 0x0, symName: '__ZN88_$LT$std..time..Instant$u20$as$u20$core..ops..arith..Add$LT$core..time..Duration$GT$$GT$3add17h62232f00c6a0e3e1E', symObjAddr: 0x31624, symBinAddr: 0xAD96C, symSize: 0x70 }
  - { offsetInCU: 0x7B685, offset: 0xD02AF, size: 0x8, addend: 0x0, symName: '__ZN88_$LT$std..time..Instant$u20$as$u20$core..ops..arith..Add$LT$core..time..Duration$GT$$GT$3add17h62232f00c6a0e3e1E', symObjAddr: 0x31624, symBinAddr: 0xAD96C, symSize: 0x70 }
  - { offsetInCU: 0x7B6F4, offset: 0xD031E, size: 0x8, addend: 0x0, symName: '__ZN94_$LT$std..time..Instant$u20$as$u20$core..ops..arith..AddAssign$LT$core..time..Duration$GT$$GT$10add_assign17h2af07b39efd2d0bbE', symObjAddr: 0x31694, symBinAddr: 0xAD9DC, symSize: 0x80 }
  - { offsetInCU: 0x7B7D8, offset: 0xD0402, size: 0x8, addend: 0x0, symName: '__ZN88_$LT$std..time..Instant$u20$as$u20$core..ops..arith..Sub$LT$core..time..Duration$GT$$GT$3sub17h25a152c8ccf00759E', symObjAddr: 0x31714, symBinAddr: 0xADA5C, symSize: 0x6C }
  - { offsetInCU: 0x7B81A, offset: 0xD0444, size: 0x8, addend: 0x0, symName: '__ZN88_$LT$std..time..Instant$u20$as$u20$core..ops..arith..Sub$LT$core..time..Duration$GT$$GT$3sub17h25a152c8ccf00759E', symObjAddr: 0x31714, symBinAddr: 0xADA5C, symSize: 0x6C }
  - { offsetInCU: 0x7B82F, offset: 0xD0459, size: 0x8, addend: 0x0, symName: '__ZN88_$LT$std..time..Instant$u20$as$u20$core..ops..arith..Sub$LT$core..time..Duration$GT$$GT$3sub17h25a152c8ccf00759E', symObjAddr: 0x31714, symBinAddr: 0xADA5C, symSize: 0x6C }
  - { offsetInCU: 0x7B845, offset: 0xD046F, size: 0x8, addend: 0x0, symName: '__ZN88_$LT$std..time..Instant$u20$as$u20$core..ops..arith..Sub$LT$core..time..Duration$GT$$GT$3sub17h25a152c8ccf00759E', symObjAddr: 0x31714, symBinAddr: 0xADA5C, symSize: 0x6C }
  - { offsetInCU: 0x7B8AC, offset: 0xD04D6, size: 0x8, addend: 0x0, symName: '__ZN94_$LT$std..time..Instant$u20$as$u20$core..ops..arith..SubAssign$LT$core..time..Duration$GT$$GT$10sub_assign17h698d966057bc2e0fE', symObjAddr: 0x31780, symBinAddr: 0xADAC8, symSize: 0x84 }
  - { offsetInCU: 0x7B988, offset: 0xD05B2, size: 0x8, addend: 0x0, symName: '__ZN55_$LT$std..time..Instant$u20$as$u20$core..fmt..Debug$GT$3fmt17h0db4720e32dc4307E', symObjAddr: 0x31850, symBinAddr: 0xADB98, symSize: 0x0 }
  - { offsetInCU: 0x7B9C1, offset: 0xD05EB, size: 0x8, addend: 0x0, symName: __ZN3std4time10SystemTime3now17h0d3d313d31a5dd99E, symObjAddr: 0x318D0, symBinAddr: 0xADC18, symSize: 0x14 }
  - { offsetInCU: 0x7B9EC, offset: 0xD0616, size: 0x8, addend: 0x0, symName: __ZN3std4time10SystemTime14duration_since17h9db04d0aab6c8244E, symObjAddr: 0x318E4, symBinAddr: 0xADC2C, symSize: 0x50 }
  - { offsetInCU: 0x7BA49, offset: 0xD0673, size: 0x8, addend: 0x0, symName: __ZN3std4time10SystemTime7elapsed17hba9d4e04e794a990E, symObjAddr: 0x31934, symBinAddr: 0xADC7C, symSize: 0x68 }
  - { offsetInCU: 0x7BAD5, offset: 0xD06FF, size: 0x8, addend: 0x0, symName: __ZN3std4time10SystemTime11checked_add17he3efc4101db67fe4E, symObjAddr: 0x3199C, symBinAddr: 0xADCE4, symSize: 0x0 }
  - { offsetInCU: 0x7BB6E, offset: 0xD0798, size: 0x8, addend: 0x0, symName: __ZN3std4time10SystemTime11checked_sub17hb0b8ffbe654669d1E, symObjAddr: 0x31A18, symBinAddr: 0xADD60, symSize: 0x0 }
  - { offsetInCU: 0x7BC2A, offset: 0xD0854, size: 0x8, addend: 0x0, symName: '__ZN91_$LT$std..time..SystemTime$u20$as$u20$core..ops..arith..Add$LT$core..time..Duration$GT$$GT$3add17he77c51cf13350e7cE', symObjAddr: 0x31A84, symBinAddr: 0xADDCC, symSize: 0x70 }
  - { offsetInCU: 0x7BC42, offset: 0xD086C, size: 0x8, addend: 0x0, symName: '__ZN91_$LT$std..time..SystemTime$u20$as$u20$core..ops..arith..Add$LT$core..time..Duration$GT$$GT$3add17he77c51cf13350e7cE', symObjAddr: 0x31A84, symBinAddr: 0xADDCC, symSize: 0x70 }
  - { offsetInCU: 0x7BC58, offset: 0xD0882, size: 0x8, addend: 0x0, symName: '__ZN91_$LT$std..time..SystemTime$u20$as$u20$core..ops..arith..Add$LT$core..time..Duration$GT$$GT$3add17he77c51cf13350e7cE', symObjAddr: 0x31A84, symBinAddr: 0xADDCC, symSize: 0x70 }
  - { offsetInCU: 0x7BC6E, offset: 0xD0898, size: 0x8, addend: 0x0, symName: '__ZN91_$LT$std..time..SystemTime$u20$as$u20$core..ops..arith..Add$LT$core..time..Duration$GT$$GT$3add17he77c51cf13350e7cE', symObjAddr: 0x31A84, symBinAddr: 0xADDCC, symSize: 0x70 }
  - { offsetInCU: 0x7BC83, offset: 0xD08AD, size: 0x8, addend: 0x0, symName: '__ZN91_$LT$std..time..SystemTime$u20$as$u20$core..ops..arith..Add$LT$core..time..Duration$GT$$GT$3add17he77c51cf13350e7cE', symObjAddr: 0x31A84, symBinAddr: 0xADDCC, symSize: 0x70 }
  - { offsetInCU: 0x7BC98, offset: 0xD08C2, size: 0x8, addend: 0x0, symName: '__ZN91_$LT$std..time..SystemTime$u20$as$u20$core..ops..arith..Add$LT$core..time..Duration$GT$$GT$3add17he77c51cf13350e7cE', symObjAddr: 0x31A84, symBinAddr: 0xADDCC, symSize: 0x70 }
  - { offsetInCU: 0x7BCAE, offset: 0xD08D8, size: 0x8, addend: 0x0, symName: '__ZN91_$LT$std..time..SystemTime$u20$as$u20$core..ops..arith..Add$LT$core..time..Duration$GT$$GT$3add17he77c51cf13350e7cE', symObjAddr: 0x31A84, symBinAddr: 0xADDCC, symSize: 0x70 }
  - { offsetInCU: 0x7BD1D, offset: 0xD0947, size: 0x8, addend: 0x0, symName: '__ZN97_$LT$std..time..SystemTime$u20$as$u20$core..ops..arith..AddAssign$LT$core..time..Duration$GT$$GT$10add_assign17hc9a76db533fac89fE', symObjAddr: 0x31AF4, symBinAddr: 0xADE3C, symSize: 0x80 }
  - { offsetInCU: 0x7BE00, offset: 0xD0A2A, size: 0x8, addend: 0x0, symName: '__ZN91_$LT$std..time..SystemTime$u20$as$u20$core..ops..arith..Sub$LT$core..time..Duration$GT$$GT$3sub17h7492a7774f301e9eE', symObjAddr: 0x31B74, symBinAddr: 0xADEBC, symSize: 0x6C }
  - { offsetInCU: 0x7BE41, offset: 0xD0A6B, size: 0x8, addend: 0x0, symName: '__ZN91_$LT$std..time..SystemTime$u20$as$u20$core..ops..arith..Sub$LT$core..time..Duration$GT$$GT$3sub17h7492a7774f301e9eE', symObjAddr: 0x31B74, symBinAddr: 0xADEBC, symSize: 0x6C }
  - { offsetInCU: 0x7BE56, offset: 0xD0A80, size: 0x8, addend: 0x0, symName: '__ZN91_$LT$std..time..SystemTime$u20$as$u20$core..ops..arith..Sub$LT$core..time..Duration$GT$$GT$3sub17h7492a7774f301e9eE', symObjAddr: 0x31B74, symBinAddr: 0xADEBC, symSize: 0x6C }
  - { offsetInCU: 0x7BE6C, offset: 0xD0A96, size: 0x8, addend: 0x0, symName: '__ZN91_$LT$std..time..SystemTime$u20$as$u20$core..ops..arith..Sub$LT$core..time..Duration$GT$$GT$3sub17h7492a7774f301e9eE', symObjAddr: 0x31B74, symBinAddr: 0xADEBC, symSize: 0x6C }
  - { offsetInCU: 0x7BED3, offset: 0xD0AFD, size: 0x8, addend: 0x0, symName: '__ZN97_$LT$std..time..SystemTime$u20$as$u20$core..ops..arith..SubAssign$LT$core..time..Duration$GT$$GT$10sub_assign17h6e5d278d6e5be412E', symObjAddr: 0x31BE0, symBinAddr: 0xADF28, symSize: 0x84 }
  - { offsetInCU: 0x7BFAE, offset: 0xD0BD8, size: 0x8, addend: 0x0, symName: '__ZN58_$LT$std..time..SystemTime$u20$as$u20$core..fmt..Debug$GT$3fmt17h8894ca68d253d2e1E', symObjAddr: 0x31C64, symBinAddr: 0xADFAC, symSize: 0x0 }
  - { offsetInCU: 0x7BFE7, offset: 0xD0C11, size: 0x8, addend: 0x0, symName: '__ZN65_$LT$std..time..SystemTimeError$u20$as$u20$core..fmt..Display$GT$3fmt17heef8a0103a48087fE', symObjAddr: 0x31CE4, symBinAddr: 0xAE02C, symSize: 0x24 }
  - { offsetInCU: 0x7C02E, offset: 0xD0C58, size: 0x8, addend: 0x0, symName: __ZN3std3env11current_dir17h901b5667fee8ba6fE, symObjAddr: 0x1C6B0, symBinAddr: 0x98E50, symSize: 0x1C8 }
  - { offsetInCU: 0x7C370, offset: 0xD0F9A, size: 0x8, addend: 0x0, symName: __ZN3std3env4vars17ha30c7c3edd338090E, symObjAddr: 0x1C878, symBinAddr: 0x99018, symSize: 0x10 }
  - { offsetInCU: 0x7C38A, offset: 0xD0FB4, size: 0x8, addend: 0x0, symName: __ZN3std3env7vars_os17h62fc5b6642caaa61E, symObjAddr: 0x1C888, symBinAddr: 0x99028, symSize: 0x2FC }
  - { offsetInCU: 0x7C997, offset: 0xD15C1, size: 0x8, addend: 0x0, symName: '__ZN75_$LT$std..env..VarsOs$u20$as$u20$core..iter..traits..iterator..Iterator$GT$4next17he9be7763dafe4dcaE', symObjAddr: 0x1CDFC, symBinAddr: 0x9959C, symSize: 0x48 }
  - { offsetInCU: 0x7CA1F, offset: 0xD1649, size: 0x8, addend: 0x0, symName: '__ZN75_$LT$std..env..VarsOs$u20$as$u20$core..iter..traits..iterator..Iterator$GT$9size_hint17hbf514095096d64baE', symObjAddr: 0x1CE44, symBinAddr: 0x995E4, symSize: 0x38 }
  - { offsetInCU: 0x7CAA8, offset: 0xD16D2, size: 0x8, addend: 0x0, symName: '__ZN73_$LT$std..env..Vars$u20$as$u20$core..iter..traits..iterator..Iterator$GT$4next17h64900e1adf3b72a8E', symObjAddr: 0x1CB84, symBinAddr: 0x99324, symSize: 0x1BC }
  - { offsetInCU: 0x7CF4F, offset: 0xD1B79, size: 0x8, addend: 0x0, symName: '__ZN73_$LT$std..env..Vars$u20$as$u20$core..iter..traits..iterator..Iterator$GT$9size_hint17hd8785c63d5ef26e3E', symObjAddr: 0x1CD40, symBinAddr: 0x994E0, symSize: 0x38 }
  - { offsetInCU: 0x7CFE0, offset: 0xD1C0A, size: 0x8, addend: 0x0, symName: '__ZN51_$LT$std..env..Vars$u20$as$u20$core..fmt..Debug$GT$3fmt17h99524d37a8cee367E', symObjAddr: 0x1CD78, symBinAddr: 0x99518, symSize: 0x84 }
  - { offsetInCU: 0x7D087, offset: 0xD1CB1, size: 0x8, addend: 0x0, symName: '__ZN53_$LT$std..env..VarsOs$u20$as$u20$core..fmt..Debug$GT$3fmt17h0311b4da6026a633E', symObjAddr: 0x1CE7C, symBinAddr: 0x9961C, symSize: 0x64 }
  - { offsetInCU: 0x7D0BE, offset: 0xD1CE8, size: 0x8, addend: 0x0, symName: __ZN3std3env4_var17h74c34fbf3876e263E, symObjAddr: 0x1CEE0, symBinAddr: 0x99680, symSize: 0x14C }
  - { offsetInCU: 0x7D267, offset: 0xD1E91, size: 0x8, addend: 0x0, symName: __ZN3std3env7_var_os17h9834cdba4956cea7E, symObjAddr: 0x1D02C, symBinAddr: 0x997CC, symSize: 0xEC }
  - { offsetInCU: 0x7D332, offset: 0xD1F5C, size: 0x8, addend: 0x0, symName: '__ZN57_$LT$std..env..VarError$u20$as$u20$core..fmt..Display$GT$3fmt17h8fc08005b41a09d8E', symObjAddr: 0x1D118, symBinAddr: 0x998B8, symSize: 0x78 }
  - { offsetInCU: 0x7D39E, offset: 0xD1FC8, size: 0x8, addend: 0x0, symName: __ZN3std3env8_set_var17h8375f0cb30573b66E, symObjAddr: 0x1D190, symBinAddr: 0x99930, symSize: 0x190 }
  - { offsetInCU: 0x7D4DB, offset: 0xD2105, size: 0x8, addend: 0x0, symName: __ZN3std3env11_remove_var17h5d716d59846dcfd4E, symObjAddr: 0x1D320, symBinAddr: 0x99AC0, symSize: 0x10C }
  - { offsetInCU: 0x7D5A5, offset: 0xD21CF, size: 0x8, addend: 0x0, symName: '__ZN79_$LT$std..env..SplitPaths$u20$as$u20$core..iter..traits..iterator..Iterator$GT$4next17he186f9f39b6e7463E', symObjAddr: 0x1D42C, symBinAddr: 0x99BCC, symSize: 0xA8 }
  - { offsetInCU: 0x7D6F1, offset: 0xD231B, size: 0x8, addend: 0x0, symName: '__ZN57_$LT$std..env..SplitPaths$u20$as$u20$core..fmt..Debug$GT$3fmt17h74af95f3dad667a2E', symObjAddr: 0x1D4D4, symBinAddr: 0x99C74, symSize: 0x38 }
  - { offsetInCU: 0x7D713, offset: 0xD233D, size: 0x8, addend: 0x0, symName: '__ZN63_$LT$std..env..JoinPathsError$u20$as$u20$core..fmt..Display$GT$3fmt17h777feb9349bd54c7E', symObjAddr: 0x1D50C, symBinAddr: 0x99CAC, symSize: 0x5C }
  - { offsetInCU: 0x7D795, offset: 0xD23BF, size: 0x8, addend: 0x0, symName: __ZN3std3env8home_dir17hca451e87c4fdad3bE, symObjAddr: 0x1D568, symBinAddr: 0x99D08, symSize: 0xD0 }
  - { offsetInCU: 0x7D8B4, offset: 0xD24DE, size: 0x8, addend: 0x0, symName: __ZN3std3env8temp_dir17h8a8182de64a06d4aE, symObjAddr: 0x1D638, symBinAddr: 0x99DD8, symSize: 0x10C }
  - { offsetInCU: 0x7DAFF, offset: 0xD2729, size: 0x8, addend: 0x0, symName: __ZN3std3env11current_exe17hdc781f2f8efe244fE, symObjAddr: 0x1D744, symBinAddr: 0x99EE4, symSize: 0xD4 }
  - { offsetInCU: 0x7DCEA, offset: 0xD2914, size: 0x8, addend: 0x0, symName: __ZN3std3env4args17hadffc8eb73a467e2E, symObjAddr: 0x1D818, symBinAddr: 0x99FB8, symSize: 0x10 }
  - { offsetInCU: 0x7DD05, offset: 0xD292F, size: 0x8, addend: 0x0, symName: __ZN3std3env7args_os17h432d2b63ccb00767E, symObjAddr: 0x1D828, symBinAddr: 0x99FC8, symSize: 0x24C }
  - { offsetInCU: 0x7E064, offset: 0xD2C8E, size: 0x8, addend: 0x0, symName: '__ZN75_$LT$std..env..ArgsOs$u20$as$u20$core..iter..traits..iterator..Iterator$GT$4next17h72787f808ef010e7E', symObjAddr: 0x1DD28, symBinAddr: 0x9A4C8, symSize: 0x48 }
  - { offsetInCU: 0x7E0EC, offset: 0xD2D16, size: 0x8, addend: 0x0, symName: '__ZN75_$LT$std..env..ArgsOs$u20$as$u20$core..iter..traits..iterator..Iterator$GT$9size_hint17h87fb3f688e222ba6E', symObjAddr: 0x1DD70, symBinAddr: 0x9A510, symSize: 0x38 }
  - { offsetInCU: 0x7E176, offset: 0xD2DA0, size: 0x8, addend: 0x0, symName: '__ZN73_$LT$std..env..Args$u20$as$u20$core..iter..traits..iterator..Iterator$GT$4next17h0521c521d059d20dE', symObjAddr: 0x1DA74, symBinAddr: 0x9A214, symSize: 0xE8 }
  - { offsetInCU: 0x7E39D, offset: 0xD2FC7, size: 0x8, addend: 0x0, symName: '__ZN73_$LT$std..env..Args$u20$as$u20$core..iter..traits..iterator..Iterator$GT$9size_hint17h9cd6aafa42e40fc2E', symObjAddr: 0x1DB5C, symBinAddr: 0x9A2FC, symSize: 0x38 }
  - { offsetInCU: 0x7E44C, offset: 0xD3076, size: 0x8, addend: 0x0, symName: '__ZN86_$LT$std..env..ArgsOs$u20$as$u20$core..iter..traits..exact_size..ExactSizeIterator$GT$3len17h44ac217f9437d422E', symObjAddr: 0x1DDA8, symBinAddr: 0x9A548, symSize: 0x2C }
  - { offsetInCU: 0x7E4D0, offset: 0xD30FA, size: 0x8, addend: 0x0, symName: '__ZN86_$LT$std..env..ArgsOs$u20$as$u20$core..iter..traits..exact_size..ExactSizeIterator$GT$8is_empty17h6909ff1bc188249dE', symObjAddr: 0x1DDD4, symBinAddr: 0x9A574, symSize: 0x20 }
  - { offsetInCU: 0x7E518, offset: 0xD3142, size: 0x8, addend: 0x0, symName: '__ZN84_$LT$std..env..Args$u20$as$u20$core..iter..traits..exact_size..ExactSizeIterator$GT$3len17hfd3f765ac916d0ccE', symObjAddr: 0x1DB94, symBinAddr: 0x9A334, symSize: 0x2C }
  - { offsetInCU: 0x7E5BA, offset: 0xD31E4, size: 0x8, addend: 0x0, symName: '__ZN84_$LT$std..env..Args$u20$as$u20$core..iter..traits..exact_size..ExactSizeIterator$GT$8is_empty17hb6c2867260dfddd4E', symObjAddr: 0x1DBC0, symBinAddr: 0x9A360, symSize: 0x20 }
  - { offsetInCU: 0x7E62E, offset: 0xD3258, size: 0x8, addend: 0x0, symName: '__ZN90_$LT$std..env..ArgsOs$u20$as$u20$core..iter..traits..double_ended..DoubleEndedIterator$GT$9next_back17h27ecc38bed4c571dE', symObjAddr: 0x1DDF4, symBinAddr: 0x9A594, symSize: 0x48 }
  - { offsetInCU: 0x7E6D5, offset: 0xD32FF, size: 0x8, addend: 0x0, symName: '__ZN88_$LT$std..env..Args$u20$as$u20$core..iter..traits..double_ended..DoubleEndedIterator$GT$9next_back17h678da62fa27836e0E', symObjAddr: 0x1DBE0, symBinAddr: 0x9A380, symSize: 0xE4 }
  - { offsetInCU: 0x7E8D9, offset: 0xD3503, size: 0x8, addend: 0x0, symName: '__ZN51_$LT$std..env..Args$u20$as$u20$core..fmt..Debug$GT$3fmt17h8e0cb7af11690782E', symObjAddr: 0x1DCC4, symBinAddr: 0x9A464, symSize: 0x64 }
  - { offsetInCU: 0x7E8FB, offset: 0xD3525, size: 0x8, addend: 0x0, symName: '__ZN53_$LT$std..env..ArgsOs$u20$as$u20$core..fmt..Debug$GT$3fmt17haef8b4614f01c003E', symObjAddr: 0x1DE3C, symBinAddr: 0x9A5DC, symSize: 0x64 }
  - { offsetInCU: 0x7E994, offset: 0xD35BE, size: 0x8, addend: 0x0, symName: __ZN3std2fs11OpenOptions5_open17hbb032c96c55a89c8E, symObjAddr: 0x1F870, symBinAddr: 0x9C010, symSize: 0xE0 }
  - { offsetInCU: 0x7EAB0, offset: 0xD36DA, size: 0x8, addend: 0x0, symName: __ZN3std2fs4File8sync_all17h1d296e9b26bbe2a0E, symObjAddr: 0x1E9E4, symBinAddr: 0x9B184, symSize: 0x0 }
  - { offsetInCU: 0x7EB96, offset: 0xD37C0, size: 0x8, addend: 0x0, symName: __ZN3std2fs4File7set_len17h2cfad69356634b12E, symObjAddr: 0x1EA70, symBinAddr: 0x9B210, symSize: 0x94 }
  - { offsetInCU: 0x7EBC3, offset: 0xD37ED, size: 0x8, addend: 0x0, symName: __ZN3std2fs4File7set_len17h2cfad69356634b12E, symObjAddr: 0x1EA70, symBinAddr: 0x9B210, symSize: 0x94 }
  - { offsetInCU: 0x7EBD9, offset: 0xD3803, size: 0x8, addend: 0x0, symName: __ZN3std2fs4File7set_len17h2cfad69356634b12E, symObjAddr: 0x1EA70, symBinAddr: 0x9B210, symSize: 0x94 }
  - { offsetInCU: 0x7ECBF, offset: 0xD38E9, size: 0x8, addend: 0x0, symName: __ZN3std2fs4File8metadata17hf1ba0d3a5209d7f7E, symObjAddr: 0x1EB04, symBinAddr: 0x9B2A4, symSize: 0xAC }
  - { offsetInCU: 0x7EDC5, offset: 0xD39EF, size: 0x8, addend: 0x0, symName: __ZN3std2fs4File9try_clone17h5c4e70617c96514fE, symObjAddr: 0x1EBB0, symBinAddr: 0x9B350, symSize: 0x0 }
  - { offsetInCU: 0x7EEB6, offset: 0xD3AE0, size: 0x8, addend: 0x0, symName: __ZN3std2fs4File15set_permissions17h95ea5fe0a82ec140E, symObjAddr: 0x1EC38, symBinAddr: 0x9B3D8, symSize: 0x90 }
  - { offsetInCU: 0x7EF86, offset: 0xD3BB0, size: 0x8, addend: 0x0, symName: __ZN3std2fs4File9set_times17hadbde1bd523c6892E, symObjAddr: 0x1ECC8, symBinAddr: 0x9B468, symSize: 0xF0 }
  - { offsetInCU: 0x7F116, offset: 0xD3D40, size: 0x8, addend: 0x0, symName: __ZN3std2fs4read5inner17h2f9ddc6b851bb95eE, symObjAddr: 0x1E2FC, symBinAddr: 0x9AA9C, symSize: 0x238 }
  - { offsetInCU: 0x7F60A, offset: 0xD4234, size: 0x8, addend: 0x0, symName: __ZN3std2fs14read_to_string5inner17h5c0b70fddf744c30E, symObjAddr: 0x1E534, symBinAddr: 0x9ACD4, symSize: 0x2D4 }
  - { offsetInCU: 0x7FC1C, offset: 0xD4846, size: 0x8, addend: 0x0, symName: '__ZN52_$LT$$RF$std..fs..File$u20$as$u20$std..io..Write$GT$5write17hae1ad0662d1069e5E', symObjAddr: 0x1F0FC, symBinAddr: 0x9B89C, symSize: 0x0 }
  - { offsetInCU: 0x7FD14, offset: 0xD493E, size: 0x8, addend: 0x0, symName: '__ZN52_$LT$$RF$std..fs..File$u20$as$u20$std..io..Write$GT$14write_vectored17h5e50483ba84300abE', symObjAddr: 0x1F14C, symBinAddr: 0x9B8EC, symSize: 0x0 }
  - { offsetInCU: 0x7FE2F, offset: 0xD4A59, size: 0x8, addend: 0x0, symName: '__ZN48_$LT$std..fs..File$u20$as$u20$std..io..Write$GT$5write17had6a9f6b7c914e80E', symObjAddr: 0x1F434, symBinAddr: 0x9BBD4, symSize: 0x0 }
  - { offsetInCU: 0x7FF3E, offset: 0xD4B68, size: 0x8, addend: 0x0, symName: '__ZN48_$LT$std..fs..File$u20$as$u20$std..io..Write$GT$14write_vectored17h193e40a306a48e5bE', symObjAddr: 0x1F480, symBinAddr: 0x9BC20, symSize: 0x0 }
  - { offsetInCU: 0x8005B, offset: 0xD4C85, size: 0x8, addend: 0x0, symName: __ZN3std2fs5write5inner17h317a4e65c05088feE, symObjAddr: 0x1E808, symBinAddr: 0x9AFA8, symSize: 0x1DC }
  - { offsetInCU: 0x8043B, offset: 0xD5065, size: 0x8, addend: 0x0, symName: '__ZN50_$LT$std..fs..File$u20$as$u20$core..fmt..Debug$GT$3fmt17ha9fd36ca41326ab7E', symObjAddr: 0x1EDB8, symBinAddr: 0x9B558, symSize: 0x64 }
  - { offsetInCU: 0x804C7, offset: 0xD50F1, size: 0x8, addend: 0x0, symName: '__ZN51_$LT$$RF$std..fs..File$u20$as$u20$std..io..Seek$GT$4seek17h3a764ef3f83c770fE', symObjAddr: 0x1F19C, symBinAddr: 0x9B93C, symSize: 0x58 }
  - { offsetInCU: 0x80565, offset: 0xD518F, size: 0x8, addend: 0x0, symName: __ZN3std2fs24buffer_capacity_required17hb73cd466b560e82cE, symObjAddr: 0x1EE1C, symBinAddr: 0x9B5BC, symSize: 0xC8 }
  - { offsetInCU: 0x80756, offset: 0xD5380, size: 0x8, addend: 0x0, symName: '__ZN51_$LT$$RF$std..fs..File$u20$as$u20$std..io..Read$GT$11read_to_end17h4fd4deb2a69a6397E', symObjAddr: 0x1EEE4, symBinAddr: 0x9B684, symSize: 0xF8 }
  - { offsetInCU: 0x80925, offset: 0xD554F, size: 0x8, addend: 0x0, symName: '__ZN51_$LT$$RF$std..fs..File$u20$as$u20$std..io..Read$GT$14read_to_string17h0b2273ca8097cb8aE', symObjAddr: 0x1EFDC, symBinAddr: 0x9B77C, symSize: 0x120 }
  - { offsetInCU: 0x80B6E, offset: 0xD5798, size: 0x8, addend: 0x0, symName: '__ZN47_$LT$std..fs..File$u20$as$u20$std..io..Read$GT$4read17h539ab500ed1e3b4aE', symObjAddr: 0x1F1F4, symBinAddr: 0x9B994, symSize: 0x4C }
  - { offsetInCU: 0x80CA7, offset: 0xD58D1, size: 0x8, addend: 0x0, symName: '__ZN47_$LT$std..fs..File$u20$as$u20$std..io..Read$GT$13read_vectored17h2c965c31e913f308E', symObjAddr: 0x1F240, symBinAddr: 0x9B9E0, symSize: 0x4C }
  - { offsetInCU: 0x80DE7, offset: 0xD5A11, size: 0x8, addend: 0x0, symName: '__ZN47_$LT$std..fs..File$u20$as$u20$std..io..Read$GT$8read_buf17ha791f7014bf6f867E', symObjAddr: 0x1F28C, symBinAddr: 0x9BA2C, symSize: 0x90 }
  - { offsetInCU: 0x80FC8, offset: 0xD5BF2, size: 0x8, addend: 0x0, symName: '__ZN47_$LT$std..fs..File$u20$as$u20$std..io..Read$GT$11read_to_end17h7cb039f271f71c71E', symObjAddr: 0x1F31C, symBinAddr: 0x9BABC, symSize: 0xF4 }
  - { offsetInCU: 0x811B5, offset: 0xD5DDF, size: 0x8, addend: 0x0, symName: '__ZN47_$LT$std..fs..File$u20$as$u20$std..io..Read$GT$14read_to_string17h6f8fcce1dc2ef3e0E', symObjAddr: 0x1F410, symBinAddr: 0x9BBB0, symSize: 0x24 }
  - { offsetInCU: 0x811F3, offset: 0xD5E1D, size: 0x8, addend: 0x0, symName: '__ZN47_$LT$std..fs..File$u20$as$u20$std..io..Seek$GT$4seek17he5d91b87f65a224cE', symObjAddr: 0x1F4CC, symBinAddr: 0x9BC6C, symSize: 0x54 }
  - { offsetInCU: 0x812B5, offset: 0xD5EDF, size: 0x8, addend: 0x0, symName: '__ZN3std2fs81_$LT$impl$u20$std..io..Read$u20$for$u20$alloc..sync..Arc$LT$std..fs..File$GT$$GT$4read17hee7213fc7dfd7bd9E', symObjAddr: 0x1F520, symBinAddr: 0x9BCC0, symSize: 0x50 }
  - { offsetInCU: 0x81439, offset: 0xD6063, size: 0x8, addend: 0x0, symName: '__ZN3std2fs81_$LT$impl$u20$std..io..Read$u20$for$u20$alloc..sync..Arc$LT$std..fs..File$GT$$GT$13read_vectored17h93fb8b7d6ddd1a96E', symObjAddr: 0x1F570, symBinAddr: 0x9BD10, symSize: 0x50 }
  - { offsetInCU: 0x815BD, offset: 0xD61E7, size: 0x8, addend: 0x0, symName: '__ZN3std2fs81_$LT$impl$u20$std..io..Read$u20$for$u20$alloc..sync..Arc$LT$std..fs..File$GT$$GT$8read_buf17hb8ba5f41c0a4af0dE', symObjAddr: 0x1F5C0, symBinAddr: 0x9BD60, symSize: 0x94 }
  - { offsetInCU: 0x817A5, offset: 0xD63CF, size: 0x8, addend: 0x0, symName: '__ZN3std2fs81_$LT$impl$u20$std..io..Read$u20$for$u20$alloc..sync..Arc$LT$std..fs..File$GT$$GT$11read_to_end17h0781b7e69493f9bcE', symObjAddr: 0x1F654, symBinAddr: 0x9BDF4, symSize: 0xF8 }
  - { offsetInCU: 0x819CE, offset: 0xD65F8, size: 0x8, addend: 0x0, symName: '__ZN3std2fs81_$LT$impl$u20$std..io..Read$u20$for$u20$alloc..sync..Arc$LT$std..fs..File$GT$$GT$14read_to_string17h9a413eefa58966a7E', symObjAddr: 0x1F74C, symBinAddr: 0x9BEEC, symSize: 0x2C }
  - { offsetInCU: 0x81A35, offset: 0xD665F, size: 0x8, addend: 0x0, symName: '__ZN3std2fs82_$LT$impl$u20$std..io..Write$u20$for$u20$alloc..sync..Arc$LT$std..fs..File$GT$$GT$5write17h6c83bd85d36430d0E', symObjAddr: 0x1F778, symBinAddr: 0x9BF18, symSize: 0x50 }
  - { offsetInCU: 0x81B8F, offset: 0xD67B9, size: 0x8, addend: 0x0, symName: '__ZN3std2fs82_$LT$impl$u20$std..io..Write$u20$for$u20$alloc..sync..Arc$LT$std..fs..File$GT$$GT$14write_vectored17he458d6b315ebf823E', symObjAddr: 0x1F7C8, symBinAddr: 0x9BF68, symSize: 0x50 }
  - { offsetInCU: 0x81CF0, offset: 0xD691A, size: 0x8, addend: 0x0, symName: '__ZN3std2fs81_$LT$impl$u20$std..io..Seek$u20$for$u20$alloc..sync..Arc$LT$std..fs..File$GT$$GT$4seek17h421038aa4ddc49a5E', symObjAddr: 0x1F818, symBinAddr: 0x9BFB8, symSize: 0x58 }
  - { offsetInCU: 0x81DF6, offset: 0xD6A20, size: 0x8, addend: 0x0, symName: __ZN3std2fs8Metadata8modified17he0ccd8a02b1e6247E, symObjAddr: 0x1F950, symBinAddr: 0x9C0F0, symSize: 0x68 }
  - { offsetInCU: 0x81E5C, offset: 0xD6A86, size: 0x8, addend: 0x0, symName: __ZN3std2fs8Metadata8accessed17h9ec366af044a2fb9E, symObjAddr: 0x1F9B8, symBinAddr: 0x9C158, symSize: 0x68 }
  - { offsetInCU: 0x81EC2, offset: 0xD6AEC, size: 0x8, addend: 0x0, symName: __ZN3std2fs8Metadata7created17h69f8c67f9ed81b78E, symObjAddr: 0x1FA20, symBinAddr: 0x9C1C0, symSize: 0x68 }
  - { offsetInCU: 0x81FAD, offset: 0xD6BD7, size: 0x8, addend: 0x0, symName: '__ZN54_$LT$std..fs..Metadata$u20$as$u20$core..fmt..Debug$GT$3fmt17ha08609c7f5f03004E', symObjAddr: 0x1FA88, symBinAddr: 0x9C228, symSize: 0x268 }
  - { offsetInCU: 0x82225, offset: 0xD6E4F, size: 0x8, addend: 0x0, symName: '__ZN54_$LT$std..fs..FileType$u20$as$u20$core..fmt..Debug$GT$3fmt17hfe566f668a77a687E', symObjAddr: 0x1FCF0, symBinAddr: 0x9C490, symSize: 0xC4 }
  - { offsetInCU: 0x82340, offset: 0xD6F6A, size: 0x8, addend: 0x0, symName: '__ZN75_$LT$std..fs..ReadDir$u20$as$u20$core..iter..traits..iterator..Iterator$GT$4next17h5c55b9337ff14c10E', symObjAddr: 0x1FDB4, symBinAddr: 0x9C554, symSize: 0x84 }
  - { offsetInCU: 0x8239E, offset: 0xD6FC8, size: 0x8, addend: 0x0, symName: __ZN3std2fs8DirEntry4path17h8f575e7fcbe01812E, symObjAddr: 0x1FE38, symBinAddr: 0x9C5D8, symSize: 0x24 }
  - { offsetInCU: 0x824AC, offset: 0xD70D6, size: 0x8, addend: 0x0, symName: __ZN3std2fs8DirEntry8metadata17hd0dccc3dc241089cE, symObjAddr: 0x1FE5C, symBinAddr: 0x9C5FC, symSize: 0x98 }
  - { offsetInCU: 0x824DE, offset: 0xD7108, size: 0x8, addend: 0x0, symName: __ZN3std2fs8DirEntry9file_type17h802af2df765d3f16E, symObjAddr: 0x1FEF4, symBinAddr: 0x9C694, symSize: 0x88 }
  - { offsetInCU: 0x82525, offset: 0xD714F, size: 0x8, addend: 0x0, symName: __ZN3std2fs8DirEntry9file_name17hb447921444da6882E, symObjAddr: 0x1FF7C, symBinAddr: 0x9C71C, symSize: 0x7C }
  - { offsetInCU: 0x82698, offset: 0xD72C2, size: 0x8, addend: 0x0, symName: '__ZN54_$LT$std..fs..DirEntry$u20$as$u20$core..fmt..Debug$GT$3fmt17h38bb12e33af49307E', symObjAddr: 0x1FFF8, symBinAddr: 0x9C798, symSize: 0xB0 }
  - { offsetInCU: 0x82907, offset: 0xD7531, size: 0x8, addend: 0x0, symName: __ZN3std2fs8metadata17h05c77743af2f2be0E, symObjAddr: 0x200A8, symBinAddr: 0x9C848, symSize: 0x178 }
  - { offsetInCU: 0x82A84, offset: 0xD76AE, size: 0x8, addend: 0x0, symName: __ZN3std2fs10DirBuilder7_create17h070345da475d110cE, symObjAddr: 0x20220, symBinAddr: 0x9C9C0, symSize: 0xC8 }
  - { offsetInCU: 0x82BC2, offset: 0xD77EC, size: 0x8, addend: 0x0, symName: __ZN3std2fs10DirBuilder14create_dir_all17h93a1971e7bafdc28E, symObjAddr: 0x202E8, symBinAddr: 0x9CA88, symSize: 0x560 }
  - { offsetInCU: 0x8319B, offset: 0xD7DC5, size: 0x8, addend: 0x0, symName: '__ZN57_$LT$std..fs..Permissions$u20$as$u20$core..fmt..Debug$GT$3fmt17haa3de8175d1b8d7dE', symObjAddr: 0x36520, symBinAddr: 0xB200C, symSize: 0x40 }
  - { offsetInCU: 0x831E5, offset: 0xD7E0F, size: 0x8, addend: 0x0, symName: '__ZN67_$LT$std..hash..random..RandomState$u20$as$u20$core..fmt..Debug$GT$3fmt17h8aa71f1fd0d698a9E', symObjAddr: 0x20848, symBinAddr: 0x9CFE8, symSize: 0x38 }
  - { offsetInCU: 0x83214, offset: 0xD7E3E, size: 0x8, addend: 0x0, symName: '__ZN3std3net11socket_addr136_$LT$impl$u20$std..sys_common..FromInner$LT$libc..unix..bsd..apple..sockaddr_in$GT$$u20$for$u20$core..net..socket_addr..SocketAddrV4$GT$10from_inner17hdeb11dc35fe19db7E', symObjAddr: 0x28920, symBinAddr: 0xA4F30, symSize: 0x24 }
  - { offsetInCU: 0x83269, offset: 0xD7E93, size: 0x8, addend: 0x0, symName: '__ZN3std3net11socket_addr130_$LT$impl$u20$std..sys_common..FromInner$LT$libc..unix..bsd..sockaddr_in6$GT$$u20$for$u20$core..net..socket_addr..SocketAddrV6$GT$10from_inner17h518fbb3d63c02c52E', symObjAddr: 0x28944, symBinAddr: 0xA4F54, symSize: 0x34 }
  - { offsetInCU: 0x832D3, offset: 0xD7EFD, size: 0x8, addend: 0x0, symName: '__ZN3std3net11socket_addr136_$LT$impl$u20$std..sys_common..IntoInner$LT$libc..unix..bsd..apple..sockaddr_in$GT$$u20$for$u20$core..net..socket_addr..SocketAddrV4$GT$10into_inner17hb579a72a6c212deeE', symObjAddr: 0x28978, symBinAddr: 0xA4F88, symSize: 0x30 }
  - { offsetInCU: 0x83318, offset: 0xD7F42, size: 0x8, addend: 0x0, symName: '__ZN3std3net11socket_addr130_$LT$impl$u20$std..sys_common..IntoInner$LT$libc..unix..bsd..sockaddr_in6$GT$$u20$for$u20$core..net..socket_addr..SocketAddrV6$GT$10into_inner17hb1b071874cfb8cb2E', symObjAddr: 0x289A8, symBinAddr: 0xA4FB8, symSize: 0x3C }
  - { offsetInCU: 0x833A5, offset: 0xD7FCF, size: 0x8, addend: 0x0, symName: __ZN3std3net11socket_addr19resolve_socket_addr17h92fac47dda0ecaacE, symObjAddr: 0x289E4, symBinAddr: 0xA4FF4, symSize: 0x26C }
  - { offsetInCU: 0x8380D, offset: 0xD8437, size: 0x8, addend: 0x0, symName: '__ZN78_$LT$$LP$$RF$str$C$u16$RP$$u20$as$u20$std..net..socket_addr..ToSocketAddrs$GT$15to_socket_addrs17h278a50d8f61dba1bE', symObjAddr: 0x28C50, symBinAddr: 0xA5260, symSize: 0x1BC }
  - { offsetInCU: 0x83A3E, offset: 0xD8668, size: 0x8, addend: 0x0, symName: '__ZN92_$LT$$LP$alloc..string..String$C$u16$RP$$u20$as$u20$std..net..socket_addr..ToSocketAddrs$GT$15to_socket_addrs17h5417d7f718cf4356E', symObjAddr: 0x28E0C, symBinAddr: 0xA541C, symSize: 0x30 }
  - { offsetInCU: 0x83ABC, offset: 0xD86E6, size: 0x8, addend: 0x0, symName: '__ZN60_$LT$str$u20$as$u20$std..net..socket_addr..ToSocketAddrs$GT$15to_socket_addrs17h4557277b92ade017E', symObjAddr: 0x28E3C, symBinAddr: 0xA544C, symSize: 0xC8 }
  - { offsetInCU: 0x83BC3, offset: 0xD87ED, size: 0x8, addend: 0x0, symName: '__ZN78_$LT$alloc..string..String$u20$as$u20$std..net..socket_addr..ToSocketAddrs$GT$15to_socket_addrs17h0d27f18fad269892E', symObjAddr: 0x28F04, symBinAddr: 0xA5514, symSize: 0x18 }
  - { offsetInCU: 0x83C48, offset: 0xD8872, size: 0x8, addend: 0x0, symName: __ZN3std3net3tcp9TcpStream15connect_timeout17h9f610cccd9939ff4E, symObjAddr: 0x28F1C, symBinAddr: 0xA552C, symSize: 0x438 }
  - { offsetInCU: 0x84227, offset: 0xD8E51, size: 0x8, addend: 0x0, symName: __ZN3std3net3tcp9TcpStream9peer_addr17h93426ce4ab6dfa1fE, symObjAddr: 0x29354, symBinAddr: 0xA5964, symSize: 0x18 }
  - { offsetInCU: 0x84241, offset: 0xD8E6B, size: 0x8, addend: 0x0, symName: __ZN3std3net3tcp9TcpStream12read_timeout17h486c53a3b1a9a8e1E, symObjAddr: 0x2936C, symBinAddr: 0xA597C, symSize: 0x0 }
  - { offsetInCU: 0x84358, offset: 0xD8F82, size: 0x8, addend: 0x0, symName: __ZN3std3net3tcp9TcpStream13write_timeout17h83406fa6a079502bE, symObjAddr: 0x29464, symBinAddr: 0xA5A74, symSize: 0x0 }
  - { offsetInCU: 0x8446F, offset: 0xD9099, size: 0x8, addend: 0x0, symName: __ZN3std3net3tcp9TcpStream10set_linger17h06101b9521cfd5a7E, symObjAddr: 0x2955C, symBinAddr: 0xA5B6C, symSize: 0x68 }
  - { offsetInCU: 0x8456C, offset: 0xD9196, size: 0x8, addend: 0x0, symName: __ZN3std3net3tcp9TcpStream6linger17hf53fb30ab95b0a98E, symObjAddr: 0x295C4, symBinAddr: 0xA5BD4, symSize: 0x88 }
  - { offsetInCU: 0x84643, offset: 0xD926D, size: 0x8, addend: 0x0, symName: __ZN3std3net3tcp9TcpStream11set_nodelay17hf45a0593c4a8b776E, symObjAddr: 0x2964C, symBinAddr: 0xA5C5C, symSize: 0x54 }
  - { offsetInCU: 0x84714, offset: 0xD933E, size: 0x8, addend: 0x0, symName: __ZN3std3net3tcp9TcpStream7nodelay17h285d3c4e4ba40caeE, symObjAddr: 0x296A0, symBinAddr: 0xA5CB0, symSize: 0x80 }
  - { offsetInCU: 0x847F2, offset: 0xD941C, size: 0x8, addend: 0x0, symName: '__ZN58_$LT$std..net..tcp..TcpStream$u20$as$u20$std..io..Read$GT$8read_buf17h5722e0b629282085E', symObjAddr: 0x29720, symBinAddr: 0xA5D30, symSize: 0x88 }
  - { offsetInCU: 0x8496E, offset: 0xD9598, size: 0x8, addend: 0x0, symName: '__ZN58_$LT$std..net..tcp..TcpStream$u20$as$u20$std..io..Read$GT$13read_vectored17hc59b678f36560395E', symObjAddr: 0x297A8, symBinAddr: 0xA5DB8, symSize: 0x0 }
  - { offsetInCU: 0x84A89, offset: 0xD96B3, size: 0x8, addend: 0x0, symName: '__ZN59_$LT$std..net..tcp..TcpStream$u20$as$u20$std..io..Write$GT$14write_vectored17hb08d0ff2b428bf6aE', symObjAddr: 0x297F4, symBinAddr: 0xA5E04, symSize: 0x4C }
  - { offsetInCU: 0x84BA6, offset: 0xD97D0, size: 0x8, addend: 0x0, symName: '__ZN62_$LT$$RF$std..net..tcp..TcpStream$u20$as$u20$std..io..Read$GT$4read17h20edaf7acda2dd33E', symObjAddr: 0x29840, symBinAddr: 0xA5E50, symSize: 0x0 }
  - { offsetInCU: 0x84C78, offset: 0xD98A2, size: 0x8, addend: 0x0, symName: '__ZN62_$LT$$RF$std..net..tcp..TcpStream$u20$as$u20$std..io..Read$GT$8read_buf17hc6ba38b00de6c61aE', symObjAddr: 0x29888, symBinAddr: 0xA5E98, symSize: 0x8C }
  - { offsetInCU: 0x84DF4, offset: 0xD9A1E, size: 0x8, addend: 0x0, symName: '__ZN62_$LT$$RF$std..net..tcp..TcpStream$u20$as$u20$std..io..Read$GT$13read_vectored17h5ec0ed921eb02374E', symObjAddr: 0x29914, symBinAddr: 0xA5F24, symSize: 0x0 }
  - { offsetInCU: 0x84F0F, offset: 0xD9B39, size: 0x8, addend: 0x0, symName: '__ZN63_$LT$$RF$std..net..tcp..TcpStream$u20$as$u20$std..io..Write$GT$5write17h0989761521a9ed96E', symObjAddr: 0x29964, symBinAddr: 0xA5F74, symSize: 0x48 }
  - { offsetInCU: 0x84FBA, offset: 0xD9BE4, size: 0x8, addend: 0x0, symName: '__ZN61_$LT$std..net..tcp..TcpStream$u20$as$u20$core..fmt..Debug$GT$3fmt17hfb0824b9d8028558E', symObjAddr: 0x299AC, symBinAddr: 0xA5FBC, symSize: 0x10 }
  - { offsetInCU: 0x84FDC, offset: 0xD9C06, size: 0x8, addend: 0x0, symName: __ZN3std3net3tcp11TcpListener10local_addr17hfa888f24d608b902E, symObjAddr: 0x299BC, symBinAddr: 0xA5FCC, symSize: 0x0 }
  - { offsetInCU: 0x84FF7, offset: 0xD9C21, size: 0x8, addend: 0x0, symName: __ZN3std3net3tcp11TcpListener9try_clone17hc8bcdbf01ca1eb44E, symObjAddr: 0x299D4, symBinAddr: 0xA5FE4, symSize: 0x0 }
  - { offsetInCU: 0x850EF, offset: 0xD9D19, size: 0x8, addend: 0x0, symName: __ZN3std3net3tcp11TcpListener6accept17hbd628363de714eb7E, symObjAddr: 0x29A5C, symBinAddr: 0xA606C, symSize: 0x154 }
  - { offsetInCU: 0x852D2, offset: 0xD9EFC, size: 0x8, addend: 0x0, symName: __ZN3std3net3tcp11TcpListener7set_ttl17ha767241c615afbdfE, symObjAddr: 0x29BB0, symBinAddr: 0xA61C0, symSize: 0x0 }
  - { offsetInCU: 0x8538C, offset: 0xD9FB6, size: 0x8, addend: 0x0, symName: __ZN3std3net3tcp11TcpListener3ttl17h6bcaa3eb6b45cfe1E, symObjAddr: 0x29C04, symBinAddr: 0xA6214, symSize: 0x0 }
  - { offsetInCU: 0x8544C, offset: 0xDA076, size: 0x8, addend: 0x0, symName: __ZN3std3net3tcp11TcpListener11set_only_v617h66c5453224d0f6eeE, symObjAddr: 0x29C7C, symBinAddr: 0xA628C, symSize: 0x54 }
  - { offsetInCU: 0x85506, offset: 0xDA130, size: 0x8, addend: 0x0, symName: __ZN3std3net3tcp11TcpListener7only_v617h798360fd2829e000E, symObjAddr: 0x29CD0, symBinAddr: 0xA62E0, symSize: 0x80 }
  - { offsetInCU: 0x855CD, offset: 0xDA1F7, size: 0x8, addend: 0x0, symName: '__ZN82_$LT$std..net..tcp..Incoming$u20$as$u20$core..iter..traits..iterator..Iterator$GT$4next17hd9e6309deadbd3f0E', symObjAddr: 0x29D50, symBinAddr: 0xA6360, symSize: 0x40 }
  - { offsetInCU: 0x85606, offset: 0xDA230, size: 0x8, addend: 0x0, symName: '__ZN86_$LT$std..net..tcp..IntoIncoming$u20$as$u20$core..iter..traits..iterator..Iterator$GT$4next17ha957226b2ae4a154E', symObjAddr: 0x29D90, symBinAddr: 0xA63A0, symSize: 0x3C }
  - { offsetInCU: 0x8563F, offset: 0xDA269, size: 0x8, addend: 0x0, symName: '__ZN63_$LT$std..net..tcp..TcpListener$u20$as$u20$core..fmt..Debug$GT$3fmt17h27cb3604f391723dE', symObjAddr: 0x29DCC, symBinAddr: 0xA63DC, symSize: 0x10 }
  - { offsetInCU: 0x85668, offset: 0xDA292, size: 0x8, addend: 0x0, symName: __ZN3std3net3udp9UdpSocket9recv_from17hf23675e59ecaafc0E, symObjAddr: 0x29DDC, symBinAddr: 0xA63EC, symSize: 0x24 }
  - { offsetInCU: 0x856AF, offset: 0xDA2D9, size: 0x8, addend: 0x0, symName: __ZN3std3net3udp9UdpSocket9peek_from17h12227fdfbf10b50cE, symObjAddr: 0x29E00, symBinAddr: 0xA6410, symSize: 0x24 }
  - { offsetInCU: 0x856F6, offset: 0xDA320, size: 0x8, addend: 0x0, symName: __ZN3std3net3udp9UdpSocket9peer_addr17hadee0cad5951c716E, symObjAddr: 0x29E24, symBinAddr: 0xA6434, symSize: 0x144 }
  - { offsetInCU: 0x858AC, offset: 0xDA4D6, size: 0x8, addend: 0x0, symName: __ZN3std3net3udp9UdpSocket13set_broadcast17h48be543b60049929E, symObjAddr: 0x29F68, symBinAddr: 0xA6578, symSize: 0x54 }
  - { offsetInCU: 0x85966, offset: 0xDA590, size: 0x8, addend: 0x0, symName: __ZN3std3net3udp9UdpSocket9broadcast17hbf1d675a06f0ee3cE, symObjAddr: 0x29FBC, symBinAddr: 0xA65CC, symSize: 0x80 }
  - { offsetInCU: 0x85A26, offset: 0xDA650, size: 0x8, addend: 0x0, symName: __ZN3std3net3udp9UdpSocket21set_multicast_loop_v417h3945ee38a37657aeE, symObjAddr: 0x2A03C, symBinAddr: 0xA664C, symSize: 0x54 }
  - { offsetInCU: 0x85AE0, offset: 0xDA70A, size: 0x8, addend: 0x0, symName: __ZN3std3net3udp9UdpSocket17multicast_loop_v417ha16c43ef7719cd36E, symObjAddr: 0x2A090, symBinAddr: 0xA66A0, symSize: 0x80 }
  - { offsetInCU: 0x85BA0, offset: 0xDA7CA, size: 0x8, addend: 0x0, symName: __ZN3std3net3udp9UdpSocket20set_multicast_ttl_v417h1554d3584bf8f820E, symObjAddr: 0x2A110, symBinAddr: 0xA6720, symSize: 0x54 }
  - { offsetInCU: 0x85C5A, offset: 0xDA884, size: 0x8, addend: 0x0, symName: __ZN3std3net3udp9UdpSocket16multicast_ttl_v417h05b93263714f9959E, symObjAddr: 0x2A164, symBinAddr: 0xA6774, symSize: 0x78 }
  - { offsetInCU: 0x85D1A, offset: 0xDA944, size: 0x8, addend: 0x0, symName: __ZN3std3net3udp9UdpSocket21set_multicast_loop_v617h317c43a3a28723a1E, symObjAddr: 0x2A1DC, symBinAddr: 0xA67EC, symSize: 0x54 }
  - { offsetInCU: 0x85DD4, offset: 0xDA9FE, size: 0x8, addend: 0x0, symName: __ZN3std3net3udp9UdpSocket17multicast_loop_v617h51e36cfeded7ed6cE, symObjAddr: 0x2A230, symBinAddr: 0xA6840, symSize: 0x80 }
  - { offsetInCU: 0x85E94, offset: 0xDAABE, size: 0x8, addend: 0x0, symName: __ZN3std3net3udp9UdpSocket17join_multicast_v417h577e86136d500b3dE, symObjAddr: 0x2A2B0, symBinAddr: 0xA68C0, symSize: 0x60 }
  - { offsetInCU: 0x85F4E, offset: 0xDAB78, size: 0x8, addend: 0x0, symName: __ZN3std3net3udp9UdpSocket17join_multicast_v617hf9468e574c3b8c44E, symObjAddr: 0x2A310, symBinAddr: 0xA6920, symSize: 0x5C }
  - { offsetInCU: 0x8601E, offset: 0xDAC48, size: 0x8, addend: 0x0, symName: __ZN3std3net3udp9UdpSocket18leave_multicast_v417h2fe2713fee31a5c3E, symObjAddr: 0x2A36C, symBinAddr: 0xA697C, symSize: 0x60 }
  - { offsetInCU: 0x860D8, offset: 0xDAD02, size: 0x8, addend: 0x0, symName: __ZN3std3net3udp9UdpSocket18leave_multicast_v617hda7cfc07e8c72370E, symObjAddr: 0x2A3CC, symBinAddr: 0xA69DC, symSize: 0x5C }
  - { offsetInCU: 0x861A8, offset: 0xDADD2, size: 0x8, addend: 0x0, symName: __ZN3std3net3udp9UdpSocket4send17h94416f6e5a494564E, symObjAddr: 0x2A428, symBinAddr: 0xA6A38, symSize: 0x0 }
  - { offsetInCU: 0x86253, offset: 0xDAE7D, size: 0x8, addend: 0x0, symName: '__ZN61_$LT$std..net..udp..UdpSocket$u20$as$u20$core..fmt..Debug$GT$3fmt17h7a94a2a2fe986500E', symObjAddr: 0x2A46C, symBinAddr: 0xA6A7C, symSize: 0x10 }
  - { offsetInCU: 0x8629F, offset: 0xDAEC9, size: 0x8, addend: 0x0, symName: __ZN3std5alloc20set_alloc_error_hook17h8ad74a862c540a94E, symObjAddr: 0x34048, symBinAddr: 0xAFBBC, symSize: 0x1C }
  - { offsetInCU: 0x862E8, offset: 0xDAF12, size: 0x8, addend: 0x0, symName: __ZN3std5alloc21take_alloc_error_hook17hbf1f0cb3d4833293E, symObjAddr: 0x34064, symBinAddr: 0xAFBD8, symSize: 0x2C }
  - { offsetInCU: 0x86331, offset: 0xDAF5B, size: 0x8, addend: 0x0, symName: __ZN3std5alloc24default_alloc_error_hook17haf257b0879427e61E, symObjAddr: 0x34090, symBinAddr: 0xAFC04, symSize: 0x118 }
  - { offsetInCU: 0x8642C, offset: 0xDB056, size: 0x8, addend: 0x0, symName: ___rdl_alloc, symObjAddr: 0x341A8, symBinAddr: 0xAFD1C, symSize: 0x58 }
  - { offsetInCU: 0x864C9, offset: 0xDB0F3, size: 0x8, addend: 0x0, symName: ___rdl_dealloc, symObjAddr: 0x34200, symBinAddr: 0xAFD74, symSize: 0x10 }
  - { offsetInCU: 0x864F7, offset: 0xDB121, size: 0x8, addend: 0x0, symName: ___rdl_realloc, symObjAddr: 0x34210, symBinAddr: 0xAFD84, symSize: 0xB0 }
  - { offsetInCU: 0x8662D, offset: 0xDB257, size: 0x8, addend: 0x0, symName: ___rdl_alloc_zeroed, symObjAddr: 0x342C0, symBinAddr: 0xAFE34, symSize: 0x8C }
  - { offsetInCU: 0x866F6, offset: 0xDB320, size: 0x8, addend: 0x0, symName: __ZN3std5alloc8rust_oom17hc9c8b40383286aa1E, symObjAddr: 0x41D60, symBinAddr: 0xBD0C4, symSize: 0x2C }
  - { offsetInCU: 0x86745, offset: 0xDB36F, size: 0x8, addend: 0x0, symName: ___rg_oom, symObjAddr: 0x41D8C, symBinAddr: 0xBD0F0, symSize: 0x18 }
  - { offsetInCU: 0x8681A, offset: 0xDB444, size: 0x8, addend: 0x0, symName: '__ZN9addr2line8function17Function$LT$R$GT$14parse_children17ha1cccc03a5724eaaE', symObjAddr: 0x1932C, symBinAddr: 0x95B44, symSize: 0x1050 }
  - { offsetInCU: 0x87CAB, offset: 0xDC8D5, size: 0x8, addend: 0x0, symName: __ZN9addr2line8function10name_entry17h151e1d25370fd036E, symObjAddr: 0x18FA4, symBinAddr: 0x957BC, symSize: 0x388 }
  - { offsetInCU: 0x88116, offset: 0xDCD40, size: 0x8, addend: 0x0, symName: __ZN9addr2line8function9name_attr17h70ef69049843f9c7E, symObjAddr: 0x1A37C, symBinAddr: 0x96B94, symSize: 0x190 }
  - { offsetInCU: 0x882B1, offset: 0xDCEDB, size: 0x8, addend: 0x0, symName: __ZN9addr2line11render_file17h04f4ccbf552cc354E, symObjAddr: 0x13F08, symBinAddr: 0x90720, symSize: 0x398 }
  - { offsetInCU: 0x88A7F, offset: 0xDD6A9, size: 0x8, addend: 0x0, symName: '__ZN9addr2line16Context$LT$R$GT$9find_unit17hb7f02b639c666cebE', symObjAddr: 0x142A0, symBinAddr: 0x90AB8, symSize: 0x120 }
  - { offsetInCU: 0x88D2A, offset: 0xDD954, size: 0x8, addend: 0x0, symName: '__ZN9addr2line16ResUnit$LT$R$GT$25find_function_or_location28_$u7b$$u7b$closure$u7d$$u7d$17ha4c28095372af6dfE', symObjAddr: 0x147B8, symBinAddr: 0x90FD0, symSize: 0x250C }
  - { offsetInCU: 0x8C750, offset: 0xE137A, size: 0x8, addend: 0x0, symName: '__ZN9addr2line16ResUnit$LT$R$GT$18dwarf_and_unit_dwo17h7f63d6200a8b6abdE', symObjAddr: 0x143C0, symBinAddr: 0x90BD8, symSize: 0x3F8 }
  - { offsetInCU: 0x8CC0A, offset: 0xE1834, size: 0x8, addend: 0x0, symName: '__ZN9addr2line18FrameIter$LT$R$GT$4next17h7228616a94083a09E', symObjAddr: 0x16CC4, symBinAddr: 0x934DC, symSize: 0x2FC }
  - { offsetInCU: 0x8D0D3, offset: 0xE1CFD, size: 0x8, addend: 0x0, symName: '__ZN9addr2line30LoopingLookup$LT$T$C$L$C$F$GT$10new_lookup17h786987ad62c265ddE', symObjAddr: 0x16FC0, symBinAddr: 0x937D8, symSize: 0x49C }
  - { offsetInCU: 0x8D563, offset: 0xE218D, size: 0x8, addend: 0x0, symName: __ZN9addr2line5Lines5parse17h65f7d92d680394ccE, symObjAddr: 0x1745C, symBinAddr: 0x93C74, symSize: 0x1B48 }
  - { offsetInCU: 0x90522, offset: 0xE514C, size: 0x8, addend: 0x0, symName: '__ZN90_$LT$gimli..read..unit..AttributeValue$LT$R$C$Offset$GT$$u20$as$u20$core..clone..Clone$GT$5clone17hcee340b14adcb6d3E', symObjAddr: 0x13A18, symBinAddr: 0x90230, symSize: 0x68 }
  - { offsetInCU: 0x9057E, offset: 0xE51A8, size: 0x8, addend: 0x0, symName: '__ZN5gimli4read4unit32AttributeValue$LT$R$C$Offset$GT$11udata_value17h1edfb4af7baf02faE', symObjAddr: 0xF010, symBinAddr: 0x8B828, symSize: 0x90 }
  - { offsetInCU: 0x90592, offset: 0xE51BC, size: 0x8, addend: 0x0, symName: '__ZN5gimli4read4unit32AttributeValue$LT$R$C$Offset$GT$8u8_value17h63de0af93afd8b3aE', symObjAddr: 0xF0A0, symBinAddr: 0x8B8B8, symSize: 0x98 }
  - { offsetInCU: 0x905C4, offset: 0xE51EE, size: 0x8, addend: 0x0, symName: '__ZN5gimli4read4unit32AttributeValue$LT$R$C$Offset$GT$9u16_value17ha16ff3030c3ed094E', symObjAddr: 0xF138, symBinAddr: 0x8B950, symSize: 0x98 }
  - { offsetInCU: 0x9063D, offset: 0xE5267, size: 0x8, addend: 0x0, symName: __ZN5gimli4read4unit15parse_attribute17hcf7a5525b2fc42c7E, symObjAddr: 0xD344, symBinAddr: 0x89B5C, symSize: 0xF68 }
  - { offsetInCU: 0x93323, offset: 0xE7F4D, size: 0x8, addend: 0x0, symName: __ZN5gimli4read4unit15skip_attributes17hf51b9f258bb0b413E, symObjAddr: 0xE2AC, symBinAddr: 0x8AAC4, symSize: 0x520 }
  - { offsetInCU: 0x93D33, offset: 0xE895D, size: 0x8, addend: 0x0, symName: '__ZN5gimli4read4unit18Attribute$LT$R$GT$5value17h9c23ec03b15c0f22E', symObjAddr: 0xE7CC, symBinAddr: 0x8AFE4, symSize: 0x58C }
  - { offsetInCU: 0x9424D, offset: 0xE8E77, size: 0x8, addend: 0x0, symName: '__ZN5gimli4read4unit22EntriesCursor$LT$R$GT$10next_entry17hd96dbd944bcbc43cE', symObjAddr: 0xED58, symBinAddr: 0x8B570, symSize: 0x2B8 }
  - { offsetInCU: 0x94822, offset: 0xE944C, size: 0x8, addend: 0x0, symName: '__ZN5gimli4read4unit33DebugInfoUnitHeadersIter$LT$R$GT$4next17h4a61644fa86f9013E', symObjAddr: 0xF1D0, symBinAddr: 0x8B9E8, symSize: 0x4D4 }
  - { offsetInCU: 0x95B47, offset: 0xEA771, size: 0x8, addend: 0x0, symName: __ZN5gimli4read6reader6Reader11read_offset17h7972c3b38a9f4d43E, symObjAddr: 0x11C5C, symBinAddr: 0x8E474, symSize: 0xBC }
  - { offsetInCU: 0x95D8F, offset: 0xEA9B9, size: 0x8, addend: 0x0, symName: __ZN5gimli4read6reader6Reader12read_sleb12817hafd46dd160805c8eE, symObjAddr: 0x11D18, symBinAddr: 0x8E530, symSize: 0x21C }
  - { offsetInCU: 0x95E7C, offset: 0xEAAA6, size: 0x8, addend: 0x0, symName: __ZN5gimli4read6reader6Reader12read_uleb12817h3a9757f15ac87deeE, symObjAddr: 0x11F34, symBinAddr: 0x8E74C, symSize: 0xB0 }
  - { offsetInCU: 0x95F39, offset: 0xEAB63, size: 0x8, addend: 0x0, symName: __ZN5gimli4read6reader6Reader17read_sized_offset17hd3c79bfe12b27094E, symObjAddr: 0x11FE4, symBinAddr: 0x8E7FC, symSize: 0xEC }
  - { offsetInCU: 0x96340, offset: 0xEAF6A, size: 0x8, addend: 0x0, symName: __ZN5gimli4read4line13parse_file_v517h0ca0719f1e0b4ee5E, symObjAddr: 0xC21C, symBinAddr: 0x88A34, symSize: 0x278 }
  - { offsetInCU: 0x964C9, offset: 0xEB0F3, size: 0x8, addend: 0x0, symName: __ZN5gimli4read4line15FileEntryFormat5parse17h20b2714f20b75677E, symObjAddr: 0xC494, symBinAddr: 0x88CAC, symSize: 0x350 }
  - { offsetInCU: 0x96CD0, offset: 0xEB8FA, size: 0x8, addend: 0x0, symName: __ZN5gimli4read4line15parse_attribute17h17c53f5c1609b953E, symObjAddr: 0xC7E4, symBinAddr: 0x88FFC, symSize: 0x868 }
  - { offsetInCU: 0x98458, offset: 0xED082, size: 0x8, addend: 0x0, symName: __ZN5gimli4read4line18parse_directory_v517h630d392f53174400E, symObjAddr: 0xD04C, symBinAddr: 0x89864, symSize: 0xE8 }
  - { offsetInCU: 0x984EE, offset: 0xED118, size: 0x8, addend: 0x0, symName: '__ZN5gimli4read4line27FileEntry$LT$R$C$Offset$GT$5parse17hcf85334339f35acaE', symObjAddr: 0xD134, symBinAddr: 0x8994C, symSize: 0x210 }
  - { offsetInCU: 0x987F8, offset: 0xED422, size: 0x8, addend: 0x0, symName: '__ZN93_$LT$gimli..read..line..LineProgramHeader$LT$R$C$Offset$GT$$u20$as$u20$core..clone..Clone$GT$5clone17h21f9c055d01148d5E', symObjAddr: 0x13A80, symBinAddr: 0x90298, symSize: 0x3D0 }
  - { offsetInCU: 0x99398, offset: 0xEDFC2, size: 0x8, addend: 0x0, symName: '__ZN5gimli4read5dwarf14Dwarf$LT$R$GT$11attr_string17h1ddfeefc755eeaadE', symObjAddr: 0x11388, symBinAddr: 0x8DBA0, symSize: 0x1E8 }
  - { offsetInCU: 0x99B33, offset: 0xEE75D, size: 0x8, addend: 0x0, symName: '__ZN5gimli4read5dwarf13Unit$LT$R$GT$3new17h3cc72ab062086305E', symObjAddr: 0xF6A4, symBinAddr: 0x8BEBC, symSize: 0x1CE4 }
  - { offsetInCU: 0x9D514, offset: 0xF213E, size: 0x8, addend: 0x0, symName: '__ZN5gimli4read5index18UnitIndex$LT$R$GT$5parse17h915c2512252d87d9E', symObjAddr: 0x11570, symBinAddr: 0x8DD88, symSize: 0x6EC }
  - { offsetInCU: 0x9DAF7, offset: 0xF2721, size: 0x8, addend: 0x0, symName: '__ZN5gimli4read7aranges30ArangeHeader$LT$R$C$Offset$GT$5parse17hdae36473f565913cE', symObjAddr: 0x120D0, symBinAddr: 0x8E8E8, symSize: 0x294 }
  - { offsetInCU: 0x9E345, offset: 0xF2F6F, size: 0x8, addend: 0x0, symName: '__ZN5gimli4read8rnglists20RngListIter$LT$R$GT$4next17habbab141171900a3E', symObjAddr: 0x12364, symBinAddr: 0x8EB7C, symSize: 0xC50 }
  - { offsetInCU: 0xA118E, offset: 0xF5DB8, size: 0x8, addend: 0x0, symName: __ZN6object4read7archive13ArchiveMember12parse_aixbig17hde25aa1223d5b1bfE, symObjAddr: 0x134E0, symBinAddr: 0x8FCF8, symSize: 0x164 }
  - { offsetInCU: 0xA13CE, offset: 0xF5FF8, size: 0x8, addend: 0x0, symName: __ZN6object4read7archive13ArchiveMember5parse17h212de3e625410007E, symObjAddr: 0x13644, symBinAddr: 0x8FE5C, symSize: 0x260 }
  - { offsetInCU: 0xA17F9, offset: 0xF6423, size: 0x8, addend: 0x0, symName: __ZN6object4read7archive23parse_bsd_extended_name17hc6e02bcba07f1e3aE, symObjAddr: 0x138A4, symBinAddr: 0x900BC, symSize: 0xD0 }
  - { offsetInCU: 0x1E, offset: 0xF6B1C, size: 0x8, addend: 0x0, symName: '__ZN4core3ptr54drop_in_place$LT$panic_unwind..real_imp..Exception$GT$17h3b520ebc553a824fE', symObjAddr: 0x0, symBinAddr: 0xC3F04, symSize: 0x70 }
  - { offsetInCU: 0x46, offset: 0xF6B44, size: 0x8, addend: 0x0, symName: '__ZN4core3ptr54drop_in_place$LT$panic_unwind..real_imp..Exception$GT$17h3b520ebc553a824fE', symObjAddr: 0x0, symBinAddr: 0xC3F04, symSize: 0x70 }
  - { offsetInCU: 0x158, offset: 0xF6C56, size: 0x8, addend: 0x0, symName: '__ZN4core3ptr79drop_in_place$LT$alloc..boxed..Box$LT$panic_unwind..real_imp..Exception$GT$$GT$17h56a744e71bc4130dE', symObjAddr: 0x70, symBinAddr: 0xC3F74, symSize: 0x88 }
  - { offsetInCU: 0x44E, offset: 0xF6F4C, size: 0x8, addend: 0x0, symName: __ZN12panic_unwind8real_imp5panic17exception_cleanup17hcc3b9de5833bd9cfE, symObjAddr: 0x208, symBinAddr: 0xC410C, symSize: 0x18 }
  - { offsetInCU: 0x46A, offset: 0xF6F68, size: 0x8, addend: 0x0, symName: ___rust_panic_cleanup, symObjAddr: 0xF8, symBinAddr: 0xC3FFC, symSize: 0x68 }
  - { offsetInCU: 0x513, offset: 0xF7011, size: 0x8, addend: 0x0, symName: ___rust_start_panic, symObjAddr: 0x160, symBinAddr: 0xC4064, symSize: 0xA8 }
  - { offsetInCU: 0x1E, offset: 0xF70D1, size: 0x8, addend: 0x0, symName: '__ZN42_$LT$$RF$T$u20$as$u20$core..fmt..Debug$GT$3fmt17he25b90b5dd136276E', symObjAddr: 0x0, symBinAddr: 0xC77CC, symSize: 0x30 }
  - { offsetInCU: 0x6E, offset: 0xF7121, size: 0x8, addend: 0x0, symName: '__ZN42_$LT$$RF$T$u20$as$u20$core..fmt..Debug$GT$3fmt17he25b90b5dd136276E', symObjAddr: 0x0, symBinAddr: 0xC77CC, symSize: 0x30 }
  - { offsetInCU: 0xE1, offset: 0xF7194, size: 0x8, addend: 0x0, symName: '__ZN4core3ptr27drop_in_place$LT$$RF$u8$GT$17hce46588691f7d190E', symObjAddr: 0x30, symBinAddr: 0xC77FC, symSize: 0x10 }
  - { offsetInCU: 0x25A, offset: 0xF730D, size: 0x8, addend: 0x0, symName: __ZN4core9panicking13assert_failed17h23deebb3f2c077b0E, symObjAddr: 0x40, symBinAddr: 0x1046F8, symSize: 0x38 }
  - { offsetInCU: 0x85F, offset: 0xF7912, size: 0x8, addend: 0x0, symName: __ZN6memchr6memchr8fallback6memchr17hba8c473b10be4ff2E, symObjAddr: 0x78, symBinAddr: 0xC780C, symSize: 0x140 }
  - { offsetInCU: 0x87D, offset: 0xF7930, size: 0x8, addend: 0x0, symName: __ZN6memchr6memchr8fallback6memchr17hba8c473b10be4ff2E, symObjAddr: 0x78, symBinAddr: 0xC780C, symSize: 0x140 }
  - { offsetInCU: 0x9CB, offset: 0xF7A7E, size: 0x8, addend: 0x0, symName: __ZN6memchr6memchr8fallback7memchr217haae05d9650d9f54aE, symObjAddr: 0x1B8, symBinAddr: 0xC794C, symSize: 0x14C }
  - { offsetInCU: 0x9E9, offset: 0xF7A9C, size: 0x8, addend: 0x0, symName: __ZN6memchr6memchr8fallback7memchr217haae05d9650d9f54aE, symObjAddr: 0x1B8, symBinAddr: 0xC794C, symSize: 0x14C }
  - { offsetInCU: 0xBC9, offset: 0xF7C7C, size: 0x8, addend: 0x0, symName: __ZN6memchr6memchr8fallback7memchr317h39302963e0e71811E, symObjAddr: 0x304, symBinAddr: 0xC7A98, symSize: 0x184 }
  - { offsetInCU: 0xBE7, offset: 0xF7C9A, size: 0x8, addend: 0x0, symName: __ZN6memchr6memchr8fallback7memchr317h39302963e0e71811E, symObjAddr: 0x304, symBinAddr: 0xC7A98, symSize: 0x184 }
  - { offsetInCU: 0xE09, offset: 0xF7EBC, size: 0x8, addend: 0x0, symName: __ZN6memchr6memchr8fallback7memrchr17h8c64b534983379e7E, symObjAddr: 0x488, symBinAddr: 0xC7C1C, symSize: 0x128 }
  - { offsetInCU: 0xE21, offset: 0xF7ED4, size: 0x8, addend: 0x0, symName: __ZN6memchr6memchr8fallback7memrchr17h8c64b534983379e7E, symObjAddr: 0x488, symBinAddr: 0xC7C1C, symSize: 0x128 }
  - { offsetInCU: 0xF19, offset: 0xF7FCC, size: 0x8, addend: 0x0, symName: __ZN6memchr6memchr8fallback8memrchr217h7d52014e2e53f9adE, symObjAddr: 0x5B0, symBinAddr: 0xC7D44, symSize: 0x140 }
  - { offsetInCU: 0xF37, offset: 0xF7FEA, size: 0x8, addend: 0x0, symName: __ZN6memchr6memchr8fallback8memrchr217h7d52014e2e53f9adE, symObjAddr: 0x5B0, symBinAddr: 0xC7D44, symSize: 0x140 }
  - { offsetInCU: 0x10CA, offset: 0xF817D, size: 0x8, addend: 0x0, symName: __ZN6memchr6memchr8fallback8memrchr317h7e69e047f06013feE, symObjAddr: 0x6F0, symBinAddr: 0xC7E84, symSize: 0x178 }
  - { offsetInCU: 0x10E8, offset: 0xF819B, size: 0x8, addend: 0x0, symName: __ZN6memchr6memchr8fallback8memrchr317h7e69e047f06013feE, symObjAddr: 0x6F0, symBinAddr: 0xC7E84, symSize: 0x178 }
  - { offsetInCU: 0x139D, offset: 0xF8450, size: 0x8, addend: 0x0, symName: __ZN6memchr6memmem9prefilter8fallback4find17h019f72be31f0652bE, symObjAddr: 0x868, symBinAddr: 0xC7FFC, symSize: 0x154 }
  - { offsetInCU: 0x1509, offset: 0xF85BC, size: 0x8, addend: 0x0, symName: '__ZN75_$LT$memchr..memmem..prefilter..PrefilterFn$u20$as$u20$core..fmt..Debug$GT$3fmt17hc985314dccd3caa4E', symObjAddr: 0x9BC, symBinAddr: 0xC8150, symSize: 0x20 }
  - { offsetInCU: 0x168E, offset: 0xF8741, size: 0x8, addend: 0x0, symName: __ZN6memchr6memmem9rabinkarp4find17h012cf5ee1d771dd1E, symObjAddr: 0x9DC, symBinAddr: 0xC8170, symSize: 0x15C }
  - { offsetInCU: 0x18A5, offset: 0xF8958, size: 0x8, addend: 0x0, symName: __ZN6memchr6memmem9rabinkarp5rfind17h77f1bf1ced060fa6E, symObjAddr: 0xB38, symBinAddr: 0xC82CC, symSize: 0x15C }
  - { offsetInCU: 0x1A7A, offset: 0xF8B2D, size: 0x8, addend: 0x0, symName: __ZN6memchr6memmem9rabinkarp10rfind_with17h2607cbc65feb7f38E, symObjAddr: 0xC94, symBinAddr: 0xC8428, symSize: 0xE0 }
  - { offsetInCU: 0x1B65, offset: 0xF8C18, size: 0x8, addend: 0x0, symName: __ZN6memchr6memmem9rabinkarp9is_prefix17h1a598a21abba9e51E, symObjAddr: 0xD74, symBinAddr: 0x104730, symSize: 0xE0 }
  - { offsetInCU: 0x1C4A, offset: 0xF8CFD, size: 0x8, addend: 0x0, symName: __ZN6memchr6memmem9rabinkarp9is_suffix17hcb0f405a2229d796E, symObjAddr: 0xE54, symBinAddr: 0x104810, symSize: 0xDC }
  - { offsetInCU: 0x1EC3, offset: 0xF8F76, size: 0x8, addend: 0x0, symName: __ZN6memchr6memmem8Searcher3new17h2c3ee17dd8f45420E, symObjAddr: 0x17A8, symBinAddr: 0xC8D80, symSize: 0x7C8 }
  - { offsetInCU: 0x233E, offset: 0xF93F1, size: 0x8, addend: 0x0, symName: __ZN6memchr6memmem8Searcher7find_tw17h31c72c1d0e4cf780E, symObjAddr: 0x1F70, symBinAddr: 0xC9548, symSize: 0x778 }
  - { offsetInCU: 0x26E7, offset: 0xF979A, size: 0x8, addend: 0x0, symName: __ZN6memchr6memmem6Finder4find17h7458f292dcaee19fE, symObjAddr: 0x164C, symBinAddr: 0xC8C24, symSize: 0x15C }
  - { offsetInCU: 0x28FB, offset: 0xF99AE, size: 0x8, addend: 0x0, symName: '__ZN83_$LT$memchr..memmem..FindIter$u20$as$u20$core..iter..traits..iterator..Iterator$GT$4next17h8529051237e653d9E', symObjAddr: 0xF30, symBinAddr: 0xC8508, symSize: 0x19C }
  - { offsetInCU: 0x2BC8, offset: 0xF9C7B, size: 0x8, addend: 0x0, symName: __ZN6memchr6memmem11SearcherRev3new17h1a8f3d149aaafda9E, symObjAddr: 0x26E8, symBinAddr: 0xC9CC0, symSize: 0x5D8 }
  - { offsetInCU: 0x2FE4, offset: 0xFA097, size: 0x8, addend: 0x0, symName: '__ZN86_$LT$memchr..memmem..FindRevIter$u20$as$u20$core..iter..traits..iterator..Iterator$GT$4next17h7f3c864c3b410d38E', symObjAddr: 0x10CC, symBinAddr: 0xC86A4, symSize: 0x580 }
  - { offsetInCU: 0x1E, offset: 0xFA420, size: 0x8, addend: 0x0, symName: __ZN9hashbrown3raw11Fallibility17capacity_overflow17h94f15c5101766245E, symObjAddr: 0x0, symBinAddr: 0xDE1EC, symSize: 0x44 }
  - { offsetInCU: 0x102, offset: 0xFA504, size: 0x8, addend: 0x0, symName: __ZN9hashbrown3raw11Fallibility17capacity_overflow17h94f15c5101766245E, symObjAddr: 0x0, symBinAddr: 0xDE1EC, symSize: 0x44 }
  - { offsetInCU: 0x132, offset: 0xFA534, size: 0x8, addend: 0x0, symName: __ZN9hashbrown3raw11Fallibility9alloc_err17hba3beb07b1fcdfefE, symObjAddr: 0x44, symBinAddr: 0xDE230, symSize: 0x24 }
  - { offsetInCU: 0x1F9, offset: 0xFA5FB, size: 0x8, addend: 0x0, symName: '__ZN91_$LT$hashbrown..raw..RawIterHashInner$u20$as$u20$core..iter..traits..iterator..Iterator$GT$4next17hb8e40ee9becba32dE', symObjAddr: 0x68, symBinAddr: 0xDE254, symSize: 0xA4 }
  - { offsetInCU: 0x1E, offset: 0xFA772, size: 0x8, addend: 0x0, symName: '__ZN42_$LT$$RF$T$u20$as$u20$core..fmt..Debug$GT$3fmt17h74bbd4e2bf9f91fbE', symObjAddr: 0x0, symBinAddr: 0xDE2F8, symSize: 0x1C }
  - { offsetInCU: 0x3E, offset: 0xFA792, size: 0x8, addend: 0x0, symName: '__ZN42_$LT$$RF$T$u20$as$u20$core..fmt..Debug$GT$3fmt17h74bbd4e2bf9f91fbE', symObjAddr: 0x0, symBinAddr: 0xDE2F8, symSize: 0x1C }
  - { offsetInCU: 0x7B, offset: 0xFA7CF, size: 0x8, addend: 0x0, symName: __ZN4core3fmt5Write9write_fmt17ha2eacffedb06af26E, symObjAddr: 0x1C, symBinAddr: 0xDE314, symSize: 0x1C }
  - { offsetInCU: 0xBF, offset: 0xFA813, size: 0x8, addend: 0x0, symName: '__ZN53_$LT$core..fmt..Error$u20$as$u20$core..fmt..Debug$GT$3fmt17h69fe7ba5e4ec8f0aE', symObjAddr: 0xFC, symBinAddr: 0xDE3F4, symSize: 0x20 }
  - { offsetInCU: 0x1B3, offset: 0xFA907, size: 0x8, addend: 0x0, symName: '__ZN4core3ptr205drop_in_place$LT$$LT$alloc..boxed..Box$LT$dyn$u20$core..error..Error$u2b$core..marker..Send$u2b$core..marker..Sync$GT$$u20$as$u20$core..convert..From$LT$alloc..string..String$GT$$GT$..from..StringError$GT$17h89c264fa7e7139f8E', symObjAddr: 0x38, symBinAddr: 0xDE330, symSize: 0x28 }
  - { offsetInCU: 0x24F, offset: 0xFA9A3, size: 0x8, addend: 0x0, symName: '__ZN4core3ptr28drop_in_place$LT$$RF$str$GT$17h88c366b1947e43e6E', symObjAddr: 0x60, symBinAddr: 0xDE358, symSize: 0x10 }
  - { offsetInCU: 0x26A, offset: 0xFA9BE, size: 0x8, addend: 0x0, symName: '__ZN4core3ptr37drop_in_place$LT$core..fmt..Error$GT$17h30a3d137d122f1b3E', symObjAddr: 0x70, symBinAddr: 0xDE368, symSize: 0x10 }
  - { offsetInCU: 0x285, offset: 0xFA9D9, size: 0x8, addend: 0x0, symName: '__ZN4core3ptr42drop_in_place$LT$alloc..string..String$GT$17h8bdd5eb66c9f0fc4E', symObjAddr: 0x80, symBinAddr: 0xDE378, symSize: 0x28 }
  - { offsetInCU: 0x4C9, offset: 0xFAC1D, size: 0x8, addend: 0x0, symName: __ZN4core5error5Error5cause17h814d0a73b4af59f7E, symObjAddr: 0xA8, symBinAddr: 0xDE3A0, symSize: 0x14 }
  - { offsetInCU: 0x4E3, offset: 0xFAC37, size: 0x8, addend: 0x0, symName: __ZN4core5error5Error7provide17hada7158b66c449d2E, symObjAddr: 0xBC, symBinAddr: 0xDE3B4, symSize: 0x10 }
  - { offsetInCU: 0x4FD, offset: 0xFAC51, size: 0x8, addend: 0x0, symName: __ZN4core5error5Error7type_id17he756ad7489a1faa5E, symObjAddr: 0xCC, symBinAddr: 0xDE3C4, symSize: 0x30 }
  - { offsetInCU: 0x52B, offset: 0xFAC7F, size: 0x8, addend: 0x0, symName: '__ZN69_$LT$core..alloc..layout..LayoutError$u20$as$u20$core..fmt..Debug$GT$3fmt17h1776c8eb3f8b25e4E', symObjAddr: 0x11C, symBinAddr: 0xDE414, symSize: 0x20 }
  - { offsetInCU: 0xC59, offset: 0xFB3AD, size: 0x8, addend: 0x0, symName: '__ZN5alloc3ffi5c_str40_$LT$impl$u20$core..ffi..c_str..CStr$GT$15to_string_lossy17hc41fc7306d433280E', symObjAddr: 0x184C, symBinAddr: 0xDFA80, symSize: 0x14 }
  - { offsetInCU: 0xC8B, offset: 0xFB3DF, size: 0x8, addend: 0x0, symName: '__ZN5alloc3ffi5c_str40_$LT$impl$u20$core..ffi..c_str..CStr$GT$13into_c_string17h81ab1e5192110b0dE', symObjAddr: 0x1860, symBinAddr: 0xDFA94, symSize: 0x0 }
  - { offsetInCU: 0x147F, offset: 0xFBBD3, size: 0x8, addend: 0x0, symName: '__ZN5alloc7raw_vec19RawVec$LT$T$C$A$GT$8grow_one17h3b750d3823ae3ac4E', symObjAddr: 0x20C, symBinAddr: 0xDE46C, symSize: 0x98 }
  - { offsetInCU: 0x177B, offset: 0xFBECF, size: 0x8, addend: 0x0, symName: __ZN5alloc7raw_vec17capacity_overflow17h6a5ac3e37a988cd5E, symObjAddr: 0x13C, symBinAddr: 0xDE434, symSize: 0x38 }
  - { offsetInCU: 0x17B7, offset: 0xFBF0B, size: 0x8, addend: 0x0, symName: '__ZN5alloc7raw_vec19RawVec$LT$T$C$A$GT$7reserve21do_reserve_and_handle17h47ffece015410875E', symObjAddr: 0x174, symBinAddr: 0x1049C4, symSize: 0x98 }
  - { offsetInCU: 0x18F8, offset: 0xFC04C, size: 0x8, addend: 0x0, symName: __ZN5alloc7raw_vec11finish_grow17h923594ef02a11fa5E, symObjAddr: 0x2A4, symBinAddr: 0xDE504, symSize: 0xA0 }
  - { offsetInCU: 0x196B, offset: 0xFC0BF, size: 0x8, addend: 0x0, symName: __ZN5alloc7raw_vec12handle_error17h373160f846653936E, symObjAddr: 0x344, symBinAddr: 0x104A5C, symSize: 0x14 }
  - { offsetInCU: 0x1A53, offset: 0xFC1A7, size: 0x8, addend: 0x0, symName: __ZN5alloc5alloc18handle_alloc_error8ct_error17ha70fb68850474206E, symObjAddr: 0x370, symBinAddr: 0xDE5A4, symSize: 0x38 }
  - { offsetInCU: 0x1A85, offset: 0xFC1D9, size: 0x8, addend: 0x0, symName: __ZN5alloc5alloc18handle_alloc_error17h828c09960ed0805dE, symObjAddr: 0x358, symBinAddr: 0x104A70, symSize: 0x18 }
  - { offsetInCU: 0x1ABD, offset: 0xFC211, size: 0x8, addend: 0x0, symName: ___rdl_oom, symObjAddr: 0x3A8, symBinAddr: 0xDE5DC, symSize: 0xA4 }
  - { offsetInCU: 0x1B6A, offset: 0xFC2BE, size: 0x8, addend: 0x0, symName: '__ZN88_$LT$alloc..collections..btree..map..UnorderedKeyError$u20$as$u20$core..fmt..Display$GT$3fmt17hadb49216cc45a32dE', symObjAddr: 0xCD0, symBinAddr: 0xDEF04, symSize: 0x24 }
  - { offsetInCU: 0x1BB0, offset: 0xFC304, size: 0x8, addend: 0x0, symName: '__ZN93_$LT$alloc..collections..btree..mem..replace..PanicGuard$u20$as$u20$core..ops..drop..Drop$GT$4drop17h39111d843e1aba7dE', symObjAddr: 0xCF4, symBinAddr: 0xDEF28, symSize: 0xC }
  - { offsetInCU: 0x1BD4, offset: 0xFC328, size: 0x8, addend: 0x0, symName: '__ZN74_$LT$alloc..collections..TryReserveError$u20$as$u20$core..fmt..Display$GT$3fmt17h23c7e1285a9fda35E', symObjAddr: 0xD00, symBinAddr: 0xDEF34, symSize: 0x74 }
  - { offsetInCU: 0x1C58, offset: 0xFC3AC, size: 0x8, addend: 0x0, symName: '__ZN67_$LT$alloc..boxed..Box$LT$str$GT$$u20$as$u20$core..clone..Clone$GT$5clone17hb219048679e7b80aE', symObjAddr: 0x44C, symBinAddr: 0xDE680, symSize: 0x7C }
  - { offsetInCU: 0x1D46, offset: 0xFC49A, size: 0x8, addend: 0x0, symName: '__ZN223_$LT$$LT$alloc..boxed..Box$LT$dyn$u20$core..error..Error$u2b$core..marker..Send$u2b$core..marker..Sync$GT$$u20$as$u20$core..convert..From$LT$alloc..string..String$GT$$GT$..from..StringError$u20$as$u20$core..error..Error$GT$11description17hab9ac4a7cc491de6E', symObjAddr: 0x4C8, symBinAddr: 0xDE6FC, symSize: 0x18 }
  - { offsetInCU: 0x1DC4, offset: 0xFC518, size: 0x8, addend: 0x0, symName: '__ZN223_$LT$$LT$alloc..boxed..Box$LT$dyn$u20$core..error..Error$u2b$core..marker..Send$u2b$core..marker..Sync$GT$$u20$as$u20$core..convert..From$LT$alloc..string..String$GT$$GT$..from..StringError$u20$as$u20$core..fmt..Display$GT$3fmt17heec69df500466992E', symObjAddr: 0x4E0, symBinAddr: 0xDE714, symSize: 0x1C }
  - { offsetInCU: 0x1DFD, offset: 0xFC551, size: 0x8, addend: 0x0, symName: '__ZN221_$LT$$LT$alloc..boxed..Box$LT$dyn$u20$core..error..Error$u2b$core..marker..Send$u2b$core..marker..Sync$GT$$u20$as$u20$core..convert..From$LT$alloc..string..String$GT$$GT$..from..StringError$u20$as$u20$core..fmt..Debug$GT$3fmt17h26d099223a486e8eE', symObjAddr: 0x4FC, symBinAddr: 0xDE730, symSize: 0x1C }
  - { offsetInCU: 0x1E75, offset: 0xFC5C9, size: 0x8, addend: 0x0, symName: '__ZN120_$LT$alloc..boxed..Box$LT$dyn$u20$core..error..Error$GT$$u20$as$u20$core..convert..From$LT$alloc..string..String$GT$$GT$4from17h443efbc1a8425d5aE', symObjAddr: 0x518, symBinAddr: 0xDE74C, symSize: 0x84 }
  - { offsetInCU: 0x1FD8, offset: 0xFC72C, size: 0x8, addend: 0x0, symName: '__ZN106_$LT$alloc..boxed..Box$LT$dyn$u20$core..error..Error$GT$$u20$as$u20$core..convert..From$LT$$RF$str$GT$$GT$4from17h93a33b981c16aa65E', symObjAddr: 0x59C, symBinAddr: 0xDE7D0, symSize: 0xD8 }
  - { offsetInCU: 0x2260, offset: 0xFC9B4, size: 0x8, addend: 0x0, symName: '__ZN174_$LT$alloc..boxed..Box$LT$dyn$u20$core..error..Error$u2b$core..marker..Send$u2b$core..marker..Sync$GT$$u20$as$u20$core..convert..From$LT$alloc..borrow..Cow$LT$str$GT$$GT$$GT$4from17hc3f20e3ac34a099fE', symObjAddr: 0x674, symBinAddr: 0xDE8A8, symSize: 0xEC }
  - { offsetInCU: 0x24E8, offset: 0xFCC3C, size: 0x8, addend: 0x0, symName: '__ZN128_$LT$alloc..boxed..Box$LT$dyn$u20$core..error..Error$GT$$u20$as$u20$core..convert..From$LT$alloc..borrow..Cow$LT$str$GT$$GT$$GT$4from17hd24fdacf8dc4d496E', symObjAddr: 0x760, symBinAddr: 0xDE994, symSize: 0xEC }
  - { offsetInCU: 0x2AAE, offset: 0xFD202, size: 0x8, addend: 0x0, symName: '__ZN5alloc3vec16Vec$LT$T$C$A$GT$11swap_remove13assert_failed17ha7dd1ffc2210428aE', symObjAddr: 0x3ED4, symBinAddr: 0x104A88, symSize: 0x54 }
  - { offsetInCU: 0x2AE6, offset: 0xFD23A, size: 0x8, addend: 0x0, symName: '__ZN5alloc3vec16Vec$LT$T$C$A$GT$6insert13assert_failed17heebc1f164e8a5f30E', symObjAddr: 0x3F28, symBinAddr: 0x104ADC, symSize: 0x54 }
  - { offsetInCU: 0x2B1E, offset: 0xFD272, size: 0x8, addend: 0x0, symName: '__ZN5alloc3vec16Vec$LT$T$C$A$GT$6remove13assert_failed17h84c253e17728262eE', symObjAddr: 0x3F7C, symBinAddr: 0x104B30, symSize: 0x54 }
  - { offsetInCU: 0x2B56, offset: 0xFD2AA, size: 0x8, addend: 0x0, symName: '__ZN5alloc3vec16Vec$LT$T$C$A$GT$9split_off13assert_failed17hf01149b3d062d2b3E', symObjAddr: 0x3FD0, symBinAddr: 0x104B84, symSize: 0x54 }
  - { offsetInCU: 0x2BA4, offset: 0xFD2F8, size: 0x8, addend: 0x0, symName: '__ZN80_$LT$alloc..vec..Vec$LT$u8$GT$$u20$as$u20$core..convert..From$LT$$RF$str$GT$$GT$4from17h73a2ffd6e51dd8e2E', symObjAddr: 0x4024, symBinAddr: 0xE2108, symSize: 0x90 }
  - { offsetInCU: 0x2D30, offset: 0xFD484, size: 0x8, addend: 0x0, symName: '__ZN98_$LT$alloc..string..String$u20$as$u20$core..convert..From$LT$alloc..borrow..Cow$LT$str$GT$$GT$$GT$4from17he598e243cc02367bE', symObjAddr: 0x3BD0, symBinAddr: 0xE1E04, symSize: 0xB0 }
  - { offsetInCU: 0x2F26, offset: 0xFD67A, size: 0x8, addend: 0x0, symName: __ZN5alloc6string6String15from_utf8_lossy17h3cfdb53bb4ad526fE, symObjAddr: 0x24E8, symBinAddr: 0xE071C, symSize: 0x228 }
  - { offsetInCU: 0x342F, offset: 0xFDB83, size: 0x8, addend: 0x0, symName: __ZN5alloc6string6String10from_utf1617h9fe3bf683f1993c4E, symObjAddr: 0x2710, symBinAddr: 0xE0944, symSize: 0x150 }
  - { offsetInCU: 0x3760, offset: 0xFDEB4, size: 0x8, addend: 0x0, symName: __ZN5alloc6string6String12from_utf16le17h5096c36f7175b9f3E, symObjAddr: 0x2860, symBinAddr: 0xE0A94, symSize: 0x1E8 }
  - { offsetInCU: 0x3ADC, offset: 0xFE230, size: 0x8, addend: 0x0, symName: __ZN5alloc6string6String18from_utf16le_lossy17h467d26fd6444d103E, symObjAddr: 0x2A48, symBinAddr: 0xE0C7C, symSize: 0x444 }
  - { offsetInCU: 0x4425, offset: 0xFEB79, size: 0x8, addend: 0x0, symName: __ZN5alloc6string6String12from_utf16be17ha799a09b02faae59E, symObjAddr: 0x2E8C, symBinAddr: 0xE10C0, symSize: 0x1A8 }
  - { offsetInCU: 0x47E2, offset: 0xFEF36, size: 0x8, addend: 0x0, symName: __ZN5alloc6string6String18from_utf16be_lossy17h155dd3c3ac6773e2E, symObjAddr: 0x3034, symBinAddr: 0xE1268, symSize: 0x394 }
  - { offsetInCU: 0x4E94, offset: 0xFF5E8, size: 0x8, addend: 0x0, symName: __ZN5alloc6string6String14into_raw_parts17h7bd8d35affa31858E, symObjAddr: 0x33C8, symBinAddr: 0xE15FC, symSize: 0x20 }
  - { offsetInCU: 0x4EC6, offset: 0xFF61A, size: 0x8, addend: 0x0, symName: __ZN5alloc6string6String11try_reserve17hde60dace4c45d2c3E, symObjAddr: 0x33E8, symBinAddr: 0xE161C, symSize: 0xB4 }
  - { offsetInCU: 0x506E, offset: 0xFF7C2, size: 0x8, addend: 0x0, symName: __ZN5alloc6string6String17try_reserve_exact17hb0d734d13f3a84adE, symObjAddr: 0x349C, symBinAddr: 0xE16D0, symSize: 0x9C }
  - { offsetInCU: 0x518E, offset: 0xFF8E2, size: 0x8, addend: 0x0, symName: __ZN5alloc6string6String4push17hcc7412f12ad14edfE, symObjAddr: 0x3538, symBinAddr: 0xE176C, symSize: 0x140 }
  - { offsetInCU: 0x5386, offset: 0xFFADA, size: 0x8, addend: 0x0, symName: __ZN5alloc6string6String12insert_bytes17hc32654e802d20a63E, symObjAddr: 0x3678, symBinAddr: 0xE18AC, symSize: 0x94 }
  - { offsetInCU: 0x5542, offset: 0xFFC96, size: 0x8, addend: 0x0, symName: '__ZN95_$LT$alloc..string..String$u20$as$u20$core..iter..traits..collect..FromIterator$LT$char$GT$$GT$9from_iter17h1d3534a5e189f6b2E', symObjAddr: 0x3860, symBinAddr: 0xE1A94, symSize: 0x350 }
  - { offsetInCU: 0x5A71, offset: 0x1001C5, size: 0x8, addend: 0x0, symName: __ZN5alloc6string13FromUtf8Error8as_bytes17hf62db86179f1cf23E, symObjAddr: 0x370C, symBinAddr: 0xE1940, symSize: 0x18 }
  - { offsetInCU: 0x5A93, offset: 0x1001E7, size: 0x8, addend: 0x0, symName: '__ZN67_$LT$alloc..string..FromUtf8Error$u20$as$u20$core..fmt..Display$GT$3fmt17h6a6ef3b8d296d1cdE', symObjAddr: 0x3724, symBinAddr: 0xE1958, symSize: 0x14 }
  - { offsetInCU: 0x5AB5, offset: 0x100209, size: 0x8, addend: 0x0, symName: '__ZN68_$LT$alloc..string..FromUtf16Error$u20$as$u20$core..fmt..Display$GT$3fmt17hcb6156b4dfe0c788E', symObjAddr: 0x3738, symBinAddr: 0xE196C, symSize: 0x20 }
  - { offsetInCU: 0x5AD7, offset: 0x10022B, size: 0x8, addend: 0x0, symName: '__ZN60_$LT$alloc..string..String$u20$as$u20$core..clone..Clone$GT$5clone17h9638d7331d43bdf7E', symObjAddr: 0x3758, symBinAddr: 0xE198C, symSize: 0x8C }
  - { offsetInCU: 0x5BE4, offset: 0x100338, size: 0x8, addend: 0x0, symName: '__ZN60_$LT$alloc..string..String$u20$as$u20$core..clone..Clone$GT$10clone_from17h2da36e30654a7b6fE', symObjAddr: 0x37E4, symBinAddr: 0xE1A18, symSize: 0x7C }
  - { offsetInCU: 0x5D21, offset: 0x100475, size: 0x8, addend: 0x0, symName: '__ZN73_$LT$$RF$alloc..string..String$u20$as$u20$core..str..pattern..Pattern$GT$13into_searcher17hb1694a3348f126c5E', symObjAddr: 0x3BB0, symBinAddr: 0xE1DE4, symSize: 0x20 }
  - { offsetInCU: 0x5D5A, offset: 0x1004AE, size: 0x8, addend: 0x0, symName: '__ZN58_$LT$alloc..string..String$u20$as$u20$core..fmt..Write$GT$9write_str17hd95f97f46128418aE', symObjAddr: 0x3C80, symBinAddr: 0xE1EB4, symSize: 0x78 }
  - { offsetInCU: 0x5E81, offset: 0x1005D5, size: 0x8, addend: 0x0, symName: '__ZN58_$LT$alloc..string..String$u20$as$u20$core..fmt..Write$GT$10write_char17hd12b76611f4521bfE', symObjAddr: 0x3CF8, symBinAddr: 0xE1F2C, symSize: 0x18 }
  - { offsetInCU: 0x5EB1, offset: 0x100605, size: 0x8, addend: 0x0, symName: __ZN5alloc6string5Drain6as_str17h4c8bd8033088590aE, symObjAddr: 0x3DEC, symBinAddr: 0xE2020, symSize: 0x1C }
  - { offsetInCU: 0x5F3C, offset: 0x100690, size: 0x8, addend: 0x0, symName: '__ZN57_$LT$alloc..string..Drain$u20$as$u20$core..fmt..Debug$GT$3fmt17h8a769ae0d93e0020E', symObjAddr: 0x3D10, symBinAddr: 0xE1F44, symSize: 0x64 }
  - { offsetInCU: 0x5FE5, offset: 0x100739, size: 0x8, addend: 0x0, symName: '__ZN62_$LT$alloc..string..Drain$u20$as$u20$core..ops..drop..Drop$GT$4drop17h1c3e72adf4accad1E', symObjAddr: 0x3D74, symBinAddr: 0xE1FA8, symSize: 0x78 }
  - { offsetInCU: 0x615A, offset: 0x1008AE, size: 0x8, addend: 0x0, symName: '__ZN72_$LT$alloc..string..Drain$u20$as$u20$core..convert..AsRef$LT$str$GT$$GT$6as_ref17h21c23a075b2d301fE', symObjAddr: 0x3E08, symBinAddr: 0xE203C, symSize: 0x0 }
  - { offsetInCU: 0x6203, offset: 0x100957, size: 0x8, addend: 0x0, symName: '__ZN79_$LT$alloc..string..Drain$u20$as$u20$core..iter..traits..iterator..Iterator$GT$9size_hint17h794a7ec93fd83ffdE', symObjAddr: 0x3E24, symBinAddr: 0xE2058, symSize: 0x2C }
  - { offsetInCU: 0x63EA, offset: 0x100B3E, size: 0x8, addend: 0x0, symName: '__ZN5alloc3str56_$LT$impl$u20$alloc..borrow..ToOwned$u20$for$u20$str$GT$10clone_into17h832bf5567a106293E', symObjAddr: 0x1A78, symBinAddr: 0xDFCAC, symSize: 0xB8 }
  - { offsetInCU: 0x6687, offset: 0x100DDB, size: 0x8, addend: 0x0, symName: '__ZN5alloc3str21_$LT$impl$u20$str$GT$12to_lowercase17h0e0855f87ae16091E', symObjAddr: 0x1B30, symBinAddr: 0xDFD64, symSize: 0x588 }
  - { offsetInCU: 0x6EC0, offset: 0x101614, size: 0x8, addend: 0x0, symName: '__ZN5alloc3str21_$LT$impl$u20$str$GT$12to_uppercase17h81f2dc062ecfc664E', symObjAddr: 0x20B8, symBinAddr: 0xE02EC, symSize: 0x2B0 }
  - { offsetInCU: 0x7144, offset: 0x101898, size: 0x8, addend: 0x0, symName: '__ZN5alloc3str21_$LT$impl$u20$str$GT$6repeat17h13511e8f11a45e80E', symObjAddr: 0x2368, symBinAddr: 0xE059C, symSize: 0x180 }
  - { offsetInCU: 0x73FB, offset: 0x101B4F, size: 0x8, addend: 0x0, symName: '__ZN92_$LT$alloc..borrow..Cow$LT$str$GT$$u20$as$u20$core..ops..arith..AddAssign$LT$$RF$str$GT$$GT$10add_assign17h266fc70221cbcddeE', symObjAddr: 0x84C, symBinAddr: 0xDEA80, symSize: 0x1F8 }
  - { offsetInCU: 0x78B0, offset: 0x102004, size: 0x8, addend: 0x0, symName: '__ZN77_$LT$alloc..borrow..Cow$LT$str$GT$$u20$as$u20$core..ops..arith..AddAssign$GT$10add_assign17h4565a9a55526e9f5E', symObjAddr: 0xA44, symBinAddr: 0xDEC78, symSize: 0x28C }
  - { offsetInCU: 0x7F40, offset: 0x102694, size: 0x8, addend: 0x0, symName: __ZN5alloc3ffi5c_str19FromVecWithNulError8as_bytes17h50e5f31096429b5dE, symObjAddr: 0xD74, symBinAddr: 0xDEFA8, symSize: 0x18 }
  - { offsetInCU: 0x7F7B, offset: 0x1026CF, size: 0x8, addend: 0x0, symName: '__ZN72_$LT$$RF$str$u20$as$u20$alloc..ffi..c_str..CString..new..SpecNewImpl$GT$13spec_new_impl17hdb4d99307d935749E', symObjAddr: 0xD8C, symBinAddr: 0xDEFC0, symSize: 0x0 }
  - { offsetInCU: 0x8190, offset: 0x1028E4, size: 0x8, addend: 0x0, symName: '__ZN89_$LT$$RF$mut$u20$$u5b$u8$u5d$$u20$as$u20$alloc..ffi..c_str..CString..new..SpecNewImpl$GT$13spec_new_impl17hb5113d9cf8050f10E', symObjAddr: 0xEC8, symBinAddr: 0xDF0FC, symSize: 0x13C }
  - { offsetInCU: 0x83BC, offset: 0x102B10, size: 0x8, addend: 0x0, symName: __ZN5alloc3ffi5c_str7CString18from_vec_unchecked17h29ab08b780f214b3E, symObjAddr: 0x1004, symBinAddr: 0xDF238, symSize: 0x30 }
  - { offsetInCU: 0x83D7, offset: 0x102B2B, size: 0x8, addend: 0x0, symName: __ZN5alloc3ffi5c_str7CString19_from_vec_unchecked17hfebb12520da173efE, symObjAddr: 0x1034, symBinAddr: 0xDF268, symSize: 0x148 }
  - { offsetInCU: 0x86C3, offset: 0x102E17, size: 0x8, addend: 0x0, symName: __ZN5alloc3ffi5c_str7CString8from_raw17h929fbae227216ecaE, symObjAddr: 0x117C, symBinAddr: 0xDF3B0, symSize: 0x28 }
  - { offsetInCU: 0x86EC, offset: 0x102E40, size: 0x8, addend: 0x0, symName: __ZN5alloc3ffi5c_str7CString11into_string17hb3b5d49446d47b80E, symObjAddr: 0x11A4, symBinAddr: 0xDF3D8, symSize: 0xF8 }
  - { offsetInCU: 0x87F9, offset: 0x102F4D, size: 0x8, addend: 0x0, symName: __ZN5alloc3ffi5c_str7CString10into_bytes17hc6d7911114d8f75fE, symObjAddr: 0x129C, symBinAddr: 0xDF4D0, symSize: 0x20 }
  - { offsetInCU: 0x8824, offset: 0x102F78, size: 0x8, addend: 0x0, symName: __ZN5alloc3ffi5c_str7CString19into_bytes_with_nul17hdfd09f7207e32e2fE, symObjAddr: 0x12BC, symBinAddr: 0xDF4F0, symSize: 0x0 }
  - { offsetInCU: 0x887A, offset: 0x102FCE, size: 0x8, addend: 0x0, symName: __ZN5alloc3ffi5c_str7CString27from_vec_with_nul_unchecked17hb7dc265b307a11f9E, symObjAddr: 0x12D4, symBinAddr: 0xDF508, symSize: 0x0 }
  - { offsetInCU: 0x89D3, offset: 0x103127, size: 0x8, addend: 0x0, symName: __ZN5alloc3ffi5c_str7CString17from_vec_with_nul17h451c7b74e38cca4eE, symObjAddr: 0x136C, symBinAddr: 0xDF5A0, symSize: 0x148 }
  - { offsetInCU: 0x8B97, offset: 0x1032EB, size: 0x8, addend: 0x0, symName: '__ZN63_$LT$alloc..ffi..c_str..CString$u20$as$u20$core..fmt..Debug$GT$3fmt17hbb639349215dc823E', symObjAddr: 0x14B4, symBinAddr: 0xDF6E8, symSize: 0x1C }
  - { offsetInCU: 0x8BF5, offset: 0x103349, size: 0x8, addend: 0x0, symName: '__ZN5alloc3ffi5c_str75_$LT$impl$u20$alloc..borrow..ToOwned$u20$for$u20$core..ffi..c_str..CStr$GT$10clone_into17h24cf1c23841b2943E', symObjAddr: 0x16B8, symBinAddr: 0xDF8EC, symSize: 0x114 }
  - { offsetInCU: 0x8EF6, offset: 0x10364A, size: 0x8, addend: 0x0, symName: '__ZN69_$LT$alloc..ffi..c_str..CString$u20$as$u20$core..default..Default$GT$7default17hfce670086e267336E', symObjAddr: 0x14D0, symBinAddr: 0xDF704, symSize: 0x40 }
  - { offsetInCU: 0x8FE7, offset: 0x10373B, size: 0x8, addend: 0x0, symName: '__ZN5alloc3ffi5c_str131_$LT$impl$u20$core..convert..From$LT$$RF$core..ffi..c_str..CStr$GT$$u20$for$u20$alloc..boxed..Box$LT$core..ffi..c_str..CStr$GT$$GT$4from17h19195e708d731fe1E', symObjAddr: 0x1510, symBinAddr: 0xDF744, symSize: 0x0 }
  - { offsetInCU: 0x90BA, offset: 0x10380E, size: 0x8, addend: 0x0, symName: '__ZN5alloc3ffi5c_str100_$LT$impl$u20$core..default..Default$u20$for$u20$alloc..boxed..Box$LT$core..ffi..c_str..CStr$GT$$GT$7default17h13347f9d864fe68fE', symObjAddr: 0x1590, symBinAddr: 0xDF7C4, symSize: 0x40 }
  - { offsetInCU: 0x9161, offset: 0x1038B5, size: 0x8, addend: 0x0, symName: '__ZN66_$LT$alloc..ffi..c_str..NulError$u20$as$u20$core..fmt..Display$GT$3fmt17hdacb1dae78dc72b6E', symObjAddr: 0x15D0, symBinAddr: 0xDF804, symSize: 0x50 }
  - { offsetInCU: 0x91B0, offset: 0x103904, size: 0x8, addend: 0x0, symName: '__ZN77_$LT$alloc..ffi..c_str..FromVecWithNulError$u20$as$u20$core..fmt..Display$GT$3fmt17hbf9f325418abdf34E', symObjAddr: 0x1620, symBinAddr: 0xDF854, symSize: 0x78 }
  - { offsetInCU: 0x9215, offset: 0x103969, size: 0x8, addend: 0x0, symName: '__ZN73_$LT$alloc..ffi..c_str..IntoStringError$u20$as$u20$core..fmt..Display$GT$3fmt17hca649cdc9cf0e0f3E', symObjAddr: 0x1698, symBinAddr: 0xDF8CC, symSize: 0x20 }
  - { offsetInCU: 0x9237, offset: 0x10398B, size: 0x8, addend: 0x0, symName: '__ZN100_$LT$alloc..ffi..c_str..CString$u20$as$u20$core..convert..From$LT$$RF$core..ffi..c_str..CStr$GT$$GT$4from17h2a6710e909566177E', symObjAddr: 0x17CC, symBinAddr: 0xDFA00, symSize: 0x80 }
  - { offsetInCU: 0x9330, offset: 0x103A84, size: 0x8, addend: 0x0, symName: __ZN5alloc3fmt6format12format_inner17h7c2fcbcf343e771bE, symObjAddr: 0x1870, symBinAddr: 0xDFAA4, symSize: 0x184 }
  - { offsetInCU: 0x954A, offset: 0x103C9E, size: 0x8, addend: 0x0, symName: __ZN5alloc2rc29rcbox_layout_for_value_layout17h04417b3c13f0571fE, symObjAddr: 0x19F4, symBinAddr: 0xDFC28, symSize: 0x84 }
  - { offsetInCU: 0x96D5, offset: 0x103E29, size: 0x8, addend: 0x0, symName: __ZN5alloc4sync32arcinner_layout_for_value_layout17h4aeb695bfed08512E, symObjAddr: 0x3E50, symBinAddr: 0xE2084, symSize: 0x84 }
  - { offsetInCU: 0x1E, offset: 0x103FCD, size: 0x8, addend: 0x0, symName: '__ZN4core3ptr25drop_in_place$LT$char$GT$17hc07061e29583d4eaE', symObjAddr: 0x0, symBinAddr: 0xE2198, symSize: 0x10 }
  - { offsetInCU: 0x38, offset: 0x103FE7, size: 0x8, addend: 0x0, symName: '__ZN4core3ptr25drop_in_place$LT$char$GT$17hc07061e29583d4eaE', symObjAddr: 0x0, symBinAddr: 0xE2198, symSize: 0x10 }
  - { offsetInCU: 0x53, offset: 0x104002, size: 0x8, addend: 0x0, symName: '__ZN4core3ptr26drop_in_place$LT$usize$GT$17h8ab0ce7ae8109154E', symObjAddr: 0x10, symBinAddr: 0xE21A8, symSize: 0x10 }
  - { offsetInCU: 0x6E, offset: 0x10401D, size: 0x8, addend: 0x0, symName: '__ZN4core3ptr37drop_in_place$LT$core..fmt..Error$GT$17hc7515716dfafac91E', symObjAddr: 0x20, symBinAddr: 0xE21B8, symSize: 0x10 }
  - { offsetInCU: 0x3F7, offset: 0x1043A6, size: 0x8, addend: 0x0, symName: '__ZN68_$LT$core..ptr..alignment..Alignment$u20$as$u20$core..fmt..Debug$GT$3fmt17hd8d717900a870dd2E', symObjAddr: 0x45A4, symBinAddr: 0xE654C, symSize: 0x78 }
  - { offsetInCU: 0x543, offset: 0x1044F2, size: 0x8, addend: 0x0, symName: '__ZN4core3f3221_$LT$impl$u20$f32$GT$7to_bits13ct_f32_to_u3217h728153b751b063afE', symObjAddr: 0x30, symBinAddr: 0xE21C8, symSize: 0xA4 }
  - { offsetInCU: 0x5D2, offset: 0x104581, size: 0x8, addend: 0x0, symName: '__ZN4core3f3221_$LT$impl$u20$f32$GT$9from_bits13ct_u32_to_f3217hacce9a08df11f853E', symObjAddr: 0xD4, symBinAddr: 0xE226C, symSize: 0x9C }
  - { offsetInCU: 0xAB7, offset: 0x104A66, size: 0x8, addend: 0x0, symName: '__ZN42_$LT$str$u20$as$u20$core..fmt..Display$GT$3fmt17hd9ca545749a5602aE', symObjAddr: 0xD7F4, symBinAddr: 0xEF2B0, symSize: 0x20 }
  - { offsetInCU: 0xBC0, offset: 0x104B6F, size: 0x8, addend: 0x0, symName: __ZN4core3fmt9Formatter12pad_integral17h591da7b884993396E, symObjAddr: 0xB858, symBinAddr: 0xED314, symSize: 0x3D8 }
  - { offsetInCU: 0xEF9, offset: 0x104EA8, size: 0x8, addend: 0x0, symName: __ZN4core3fmt9Formatter3pad17h16a2db4ffe48d6c6E, symObjAddr: 0xBCAC, symBinAddr: 0xED768, symSize: 0x3B0 }
  - { offsetInCU: 0x131A, offset: 0x1052C9, size: 0x8, addend: 0x0, symName: __ZN4core3fmt9Formatter19pad_formatted_parts17h06c763e76ed97845E, symObjAddr: 0xC05C, symBinAddr: 0xEDB18, symSize: 0x218 }
  - { offsetInCU: 0x14FE, offset: 0x1054AD, size: 0x8, addend: 0x0, symName: __ZN4core3fmt9Formatter21write_formatted_parts17h85a86c5dfed92e80E, symObjAddr: 0xC274, symBinAddr: 0xEDD30, symSize: 0x23C }
  - { offsetInCU: 0x15EB, offset: 0x10559A, size: 0x8, addend: 0x0, symName: __ZN4core3fmt9Formatter9write_str17h9cf266f5ad16ed14E, symObjAddr: 0xC4B0, symBinAddr: 0xEDF6C, symSize: 0x0 }
  - { offsetInCU: 0x15FF, offset: 0x1055AE, size: 0x8, addend: 0x0, symName: __ZN4core3fmt9Formatter12debug_struct17h6980671fe0aa0a80E, symObjAddr: 0xC4CC, symBinAddr: 0xEDF88, symSize: 0x3C }
  - { offsetInCU: 0x1640, offset: 0x1055EF, size: 0x8, addend: 0x0, symName: __ZN4core3fmt9Formatter26debug_struct_field1_finish17ha360a349e6d41985E, symObjAddr: 0xC508, symBinAddr: 0xEDFC4, symSize: 0xD8 }
  - { offsetInCU: 0x1717, offset: 0x1056C6, size: 0x8, addend: 0x0, symName: __ZN4core3fmt9Formatter26debug_struct_field2_finish17h8338bffa84f6b85fE, symObjAddr: 0xC5E0, symBinAddr: 0xEE09C, symSize: 0x10C }
  - { offsetInCU: 0x17EE, offset: 0x10579D, size: 0x8, addend: 0x0, symName: __ZN4core3fmt9Formatter26debug_struct_field3_finish17ha8ad6cd47a10486aE, symObjAddr: 0xC6EC, symBinAddr: 0xEE1A8, symSize: 0x134 }
  - { offsetInCU: 0x18C5, offset: 0x105874, size: 0x8, addend: 0x0, symName: __ZN4core3fmt9Formatter26debug_struct_field4_finish17ha057eee57fa8c585E, symObjAddr: 0xC820, symBinAddr: 0xEE2DC, symSize: 0x164 }
  - { offsetInCU: 0x199C, offset: 0x10594B, size: 0x8, addend: 0x0, symName: __ZN4core3fmt9Formatter26debug_struct_field5_finish17hd58c86124146ad6bE, symObjAddr: 0xC984, symBinAddr: 0xEE440, symSize: 0x188 }
  - { offsetInCU: 0x1A73, offset: 0x105A22, size: 0x8, addend: 0x0, symName: __ZN4core3fmt9Formatter26debug_struct_fields_finish17hab2bb02f5f8afc40E, symObjAddr: 0xCB0C, symBinAddr: 0xEE5C8, symSize: 0x108 }
  - { offsetInCU: 0x1B5E, offset: 0x105B0D, size: 0x8, addend: 0x0, symName: __ZN4core3fmt9Formatter11debug_tuple17h637e99aa82e304f4E, symObjAddr: 0xCC14, symBinAddr: 0xEE6D0, symSize: 0x50 }
  - { offsetInCU: 0x1BB5, offset: 0x105B64, size: 0x8, addend: 0x0, symName: __ZN4core3fmt9Formatter25debug_tuple_field1_finish17h26a79e0b0a87820cE, symObjAddr: 0xCC64, symBinAddr: 0xEE720, symSize: 0xEC }
  - { offsetInCU: 0x1C8B, offset: 0x105C3A, size: 0x8, addend: 0x0, symName: __ZN4core3fmt9Formatter25debug_tuple_field2_finish17hc22457047856dc3fE, symObjAddr: 0xCD50, symBinAddr: 0xEE80C, symSize: 0x10C }
  - { offsetInCU: 0x1D61, offset: 0x105D10, size: 0x8, addend: 0x0, symName: __ZN4core3fmt9Formatter25debug_tuple_field3_finish17h0fa153540029d3eaE, symObjAddr: 0xCE5C, symBinAddr: 0xEE918, symSize: 0x12C }
  - { offsetInCU: 0x1E37, offset: 0x105DE6, size: 0x8, addend: 0x0, symName: __ZN4core3fmt9Formatter25debug_tuple_field4_finish17h89b774c82c243212E, symObjAddr: 0xCF88, symBinAddr: 0xEEA44, symSize: 0x148 }
  - { offsetInCU: 0x1F0D, offset: 0x105EBC, size: 0x8, addend: 0x0, symName: __ZN4core3fmt9Formatter25debug_tuple_field5_finish17h5e62483e6216841eE, symObjAddr: 0xD0D0, symBinAddr: 0xEEB8C, symSize: 0x164 }
  - { offsetInCU: 0x1FE3, offset: 0x105F92, size: 0x8, addend: 0x0, symName: __ZN4core3fmt9Formatter25debug_tuple_fields_finish17h5103c8e176d833a8E, symObjAddr: 0xD234, symBinAddr: 0xEECF0, symSize: 0x10C }
  - { offsetInCU: 0x2117, offset: 0x1060C6, size: 0x8, addend: 0x0, symName: __ZN4core3fmt9Formatter10debug_list17h3c95e33018f2a861E, symObjAddr: 0xD340, symBinAddr: 0xEEDFC, symSize: 0x48 }
  - { offsetInCU: 0x2159, offset: 0x106108, size: 0x8, addend: 0x0, symName: __ZN4core3fmt9Formatter9debug_set17h137e00c06f33927eE, symObjAddr: 0xD388, symBinAddr: 0xEEE44, symSize: 0x48 }
  - { offsetInCU: 0x21A2, offset: 0x106151, size: 0x8, addend: 0x0, symName: __ZN4core3fmt9Formatter9debug_map17h2986416a50b566ffE, symObjAddr: 0xD3D0, symBinAddr: 0xEEE8C, symSize: 0x58 }
  - { offsetInCU: 0x2388, offset: 0x106337, size: 0x8, addend: 0x0, symName: __ZN4core3fmt8builders11DebugStruct5field17hb44e22bb986d9407E, symObjAddr: 0x8970, symBinAddr: 0xEA42C, symSize: 0x1C4 }
  - { offsetInCU: 0x25A6, offset: 0x106555, size: 0x8, addend: 0x0, symName: __ZN4core3fmt8builders11DebugStruct21finish_non_exhaustive17h09573d7a13c6dfd0E, symObjAddr: 0x8B34, symBinAddr: 0xEA5F0, symSize: 0xCC }
  - { offsetInCU: 0x26B6, offset: 0x106665, size: 0x8, addend: 0x0, symName: __ZN4core3fmt8builders11DebugStruct6finish17h2262e9656698a385E, symObjAddr: 0x8C00, symBinAddr: 0xEA6BC, symSize: 0x8C }
  - { offsetInCU: 0x27BC, offset: 0x10676B, size: 0x8, addend: 0x0, symName: __ZN4core3fmt8builders10PadAdapter4wrap17h4db056bf328841b7E, symObjAddr: 0x8688, symBinAddr: 0xEA144, symSize: 0x40 }
  - { offsetInCU: 0x2827, offset: 0x1067D6, size: 0x8, addend: 0x0, symName: '__ZN68_$LT$core..fmt..builders..PadAdapter$u20$as$u20$core..fmt..Write$GT$9write_str17h38efa49c8229194dE', symObjAddr: 0x86C8, symBinAddr: 0xEA184, symSize: 0x228 }
  - { offsetInCU: 0x2AB4, offset: 0x106A63, size: 0x8, addend: 0x0, symName: '__ZN68_$LT$core..fmt..builders..PadAdapter$u20$as$u20$core..fmt..Write$GT$10write_char17h0267569095f82b40E', symObjAddr: 0x88F0, symBinAddr: 0xEA3AC, symSize: 0x80 }
  - { offsetInCU: 0x2B42, offset: 0x106AF1, size: 0x8, addend: 0x0, symName: __ZN4core3fmt8builders10DebugTuple5field17h162f6755efe2962dE, symObjAddr: 0x8C8C, symBinAddr: 0xEA748, symSize: 0x15C }
  - { offsetInCU: 0x2CDF, offset: 0x106C8E, size: 0x8, addend: 0x0, symName: __ZN4core3fmt8builders10DebugTuple6finish17h3cf60ad9318ac1e5E, symObjAddr: 0x8DE8, symBinAddr: 0xEA8A4, symSize: 0xC0 }
  - { offsetInCU: 0x2E27, offset: 0x106DD6, size: 0x8, addend: 0x0, symName: __ZN4core3fmt8builders8DebugSet5entry17h977dda1234d5c4daE, symObjAddr: 0x8EA8, symBinAddr: 0xEA964, symSize: 0x0 }
  - { offsetInCU: 0x2FC4, offset: 0x106F73, size: 0x8, addend: 0x0, symName: __ZN4core3fmt8builders8DebugSet6finish17h7195ef2d92402fc4E, symObjAddr: 0x9004, symBinAddr: 0xEAAC0, symSize: 0x3C }
  - { offsetInCU: 0x303F, offset: 0x106FEE, size: 0x8, addend: 0x0, symName: __ZN4core3fmt8builders9DebugList6finish17h03c394937aea5913E, symObjAddr: 0x9040, symBinAddr: 0xEAAFC, symSize: 0x3C }
  - { offsetInCU: 0x30B3, offset: 0x107062, size: 0x8, addend: 0x0, symName: __ZN4core3fmt8builders8DebugMap5entry17h4543f41e5953c1b8E, symObjAddr: 0x907C, symBinAddr: 0xEAB38, symSize: 0x2C }
  - { offsetInCU: 0x30EA, offset: 0x107099, size: 0x8, addend: 0x0, symName: __ZN4core3fmt8builders8DebugMap3key17h397f6168621d6a31E, symObjAddr: 0x90A8, symBinAddr: 0xEAB64, symSize: 0x1DC }
  - { offsetInCU: 0x32EA, offset: 0x107299, size: 0x8, addend: 0x0, symName: __ZN4core3fmt8builders8DebugMap5value17h5d7a2c4d4f666d78E, symObjAddr: 0x9284, symBinAddr: 0xEAD40, symSize: 0x118 }
  - { offsetInCU: 0x3452, offset: 0x107401, size: 0x8, addend: 0x0, symName: __ZN4core3fmt8builders8DebugMap6finish17h3f3ee9e84b104315E, symObjAddr: 0x939C, symBinAddr: 0xEAE58, symSize: 0x6C }
  - { offsetInCU: 0x3575, offset: 0x107524, size: 0x8, addend: 0x0, symName: '__ZN57_$LT$core..fmt..Formatter$u20$as$u20$core..fmt..Write$GT$10write_char17hd6b0c18c71bc7a8eE', symObjAddr: 0xD428, symBinAddr: 0xEEEE4, symSize: 0x1C }
  - { offsetInCU: 0x3613, offset: 0x1075C2, size: 0x8, addend: 0x0, symName: __ZN4core3fmt5Write10write_char17h0169eed2e9f81f4bE, symObjAddr: 0xB038, symBinAddr: 0xECAF4, symSize: 0x158 }
  - { offsetInCU: 0x36C6, offset: 0x107675, size: 0x8, addend: 0x0, symName: __ZN4core3fmt5Write10write_char17h718557c5bc044c14E, symObjAddr: 0xB190, symBinAddr: 0xECC4C, symSize: 0x158 }
  - { offsetInCU: 0x3779, offset: 0x107728, size: 0x8, addend: 0x0, symName: __ZN4core3fmt5Write10write_char17h98e633994e22fb03E, symObjAddr: 0xB2E8, symBinAddr: 0xECDA4, symSize: 0x158 }
  - { offsetInCU: 0x382C, offset: 0x1077DB, size: 0x8, addend: 0x0, symName: __ZN4core3fmt5Write10write_char17hbfd9de705fb53744E, symObjAddr: 0xB440, symBinAddr: 0xECEFC, symSize: 0x158 }
  - { offsetInCU: 0x38DF, offset: 0x10788E, size: 0x8, addend: 0x0, symName: __ZN4core3fmt5Write9write_fmt17h12d77557263dea6aE, symObjAddr: 0xB598, symBinAddr: 0xED054, symSize: 0x1C }
  - { offsetInCU: 0x390F, offset: 0x1078BE, size: 0x8, addend: 0x0, symName: __ZN4core3fmt5Write9write_fmt17h6f3c47f071e38d30E, symObjAddr: 0xB5B4, symBinAddr: 0xED070, symSize: 0x1C }
  - { offsetInCU: 0x393F, offset: 0x1078EE, size: 0x8, addend: 0x0, symName: __ZN4core3fmt5Write9write_fmt17h74cfb9fd762f0453E, symObjAddr: 0xB5D0, symBinAddr: 0xED08C, symSize: 0x1C }
  - { offsetInCU: 0x396F, offset: 0x10791E, size: 0x8, addend: 0x0, symName: __ZN4core3fmt5Write9write_fmt17hd7548f0acea24928E, symObjAddr: 0xB5EC, symBinAddr: 0xED0A8, symSize: 0x1C }
  - { offsetInCU: 0x399F, offset: 0x10794E, size: 0x8, addend: 0x0, symName: __ZN4core3fmt5Write9write_fmt17hdb5cbd8f213639c8E, symObjAddr: 0xB608, symBinAddr: 0xED0C4, symSize: 0x1C }
  - { offsetInCU: 0x39E4, offset: 0x107993, size: 0x8, addend: 0x0, symName: '__ZN43_$LT$bool$u20$as$u20$core..fmt..Display$GT$3fmt17h8f2d3c412a62467fE', symObjAddr: 0xD464, symBinAddr: 0xEEF20, symSize: 0x44 }
  - { offsetInCU: 0x3A41, offset: 0x1079F0, size: 0x8, addend: 0x0, symName: __ZN4core3fmt5float29float_to_decimal_common_exact17h370fe2880c02619bE, symObjAddr: 0x9408, symBinAddr: 0xEAEC4, symSize: 0x31C }
  - { offsetInCU: 0x3B25, offset: 0x107AD4, size: 0x8, addend: 0x0, symName: __ZN4core3fmt5float29float_to_decimal_common_exact17h8a79afdf286e2555E, symObjAddr: 0x9724, symBinAddr: 0xEB1E0, symSize: 0x324 }
  - { offsetInCU: 0x3C1F, offset: 0x107BCE, size: 0x8, addend: 0x0, symName: __ZN4core3fmt5float32float_to_decimal_common_shortest17h8c9c94c7ed7fc9daE, symObjAddr: 0x9A48, symBinAddr: 0xEB504, symSize: 0x274 }
  - { offsetInCU: 0x3D13, offset: 0x107CC2, size: 0x8, addend: 0x0, symName: __ZN4core3fmt5float32float_to_decimal_common_shortest17hbcbf4b421473e727E, symObjAddr: 0x9CBC, symBinAddr: 0xEB778, symSize: 0x26C }
  - { offsetInCU: 0x3DF1, offset: 0x107DA0, size: 0x8, addend: 0x0, symName: __ZN4core3fmt5float33float_to_exponential_common_exact17h0cbec070bf0ffb4fE, symObjAddr: 0x9F28, symBinAddr: 0xEB9E4, symSize: 0x360 }
  - { offsetInCU: 0x3F00, offset: 0x107EAF, size: 0x8, addend: 0x0, symName: __ZN4core3fmt5float33float_to_exponential_common_exact17hf6ba5372d24176e7E, symObjAddr: 0xA288, symBinAddr: 0xEBD44, symSize: 0x368 }
  - { offsetInCU: 0x4025, offset: 0x107FD4, size: 0x8, addend: 0x0, symName: __ZN4core3fmt5float36float_to_exponential_common_shortest17ha301068961061f90E, symObjAddr: 0xA5F0, symBinAddr: 0xEC0AC, symSize: 0x25C }
  - { offsetInCU: 0x4103, offset: 0x1080B2, size: 0x8, addend: 0x0, symName: __ZN4core3fmt5float36float_to_exponential_common_shortest17hcf26729b7d260d40E, symObjAddr: 0xA84C, symBinAddr: 0xEC308, symSize: 0x264 }
  - { offsetInCU: 0x422E, offset: 0x1081DD, size: 0x8, addend: 0x0, symName: '__ZN4core3fmt5float50_$LT$impl$u20$core..fmt..Debug$u20$for$u20$f32$GT$3fmt17heb7ab04d00347863E', symObjAddr: 0x190A0, symBinAddr: 0xFA688, symSize: 0x9C }
  - { offsetInCU: 0x42AB, offset: 0x10825A, size: 0x8, addend: 0x0, symName: '__ZN4core3fmt5float52_$LT$impl$u20$core..fmt..Display$u20$for$u20$f32$GT$3fmt17h9364bf4783891332E', symObjAddr: 0x1913C, symBinAddr: 0xFA724, symSize: 0x44 }
  - { offsetInCU: 0x42FD, offset: 0x1082AC, size: 0x8, addend: 0x0, symName: '__ZN4core3fmt5float53_$LT$impl$u20$core..fmt..LowerExp$u20$for$u20$f32$GT$3fmt17h9a2e0be97eaf2efbE', symObjAddr: 0x19180, symBinAddr: 0xFA768, symSize: 0x4C }
  - { offsetInCU: 0x4342, offset: 0x1082F1, size: 0x8, addend: 0x0, symName: '__ZN4core3fmt5float53_$LT$impl$u20$core..fmt..UpperExp$u20$for$u20$f32$GT$3fmt17hcd8fa33531f76704E', symObjAddr: 0x191CC, symBinAddr: 0xFA7B4, symSize: 0x4C }
  - { offsetInCU: 0x43A8, offset: 0x108357, size: 0x8, addend: 0x0, symName: '__ZN4core3fmt5float50_$LT$impl$u20$core..fmt..Debug$u20$for$u20$f64$GT$3fmt17h6bbafed92251a6b7E', symObjAddr: 0x19218, symBinAddr: 0xFA800, symSize: 0x94 }
  - { offsetInCU: 0x4425, offset: 0x1083D4, size: 0x8, addend: 0x0, symName: '__ZN4core3fmt5float52_$LT$impl$u20$core..fmt..Display$u20$for$u20$f64$GT$3fmt17hcdde70b4e043e5b9E', symObjAddr: 0x192AC, symBinAddr: 0xFA894, symSize: 0x44 }
  - { offsetInCU: 0x4477, offset: 0x108426, size: 0x8, addend: 0x0, symName: '__ZN4core3fmt5float53_$LT$impl$u20$core..fmt..LowerExp$u20$for$u20$f64$GT$3fmt17hf15e817b90cc6e14E', symObjAddr: 0x192F0, symBinAddr: 0xFA8D8, symSize: 0x4C }
  - { offsetInCU: 0x44BC, offset: 0x10846B, size: 0x8, addend: 0x0, symName: '__ZN4core3fmt5float53_$LT$impl$u20$core..fmt..UpperExp$u20$for$u20$f64$GT$3fmt17hfe71c40a1d98d02aE', symObjAddr: 0x1933C, symBinAddr: 0xFA924, symSize: 0x4C }
  - { offsetInCU: 0x4502, offset: 0x1084B1, size: 0x8, addend: 0x0, symName: __ZN4core3fmt3num14parse_u64_into17h07599f817b7b984bE, symObjAddr: 0xAAB0, symBinAddr: 0xEC56C, symSize: 0x3B0 }
  - { offsetInCU: 0x46FE, offset: 0x1086AD, size: 0x8, addend: 0x0, symName: '__ZN4core3fmt3num53_$LT$impl$u20$core..fmt..Display$u20$for$u20$u128$GT$3fmt17h775b8e1225c524beE', symObjAddr: 0xAE60, symBinAddr: 0xEC91C, symSize: 0x1C }
  - { offsetInCU: 0x4727, offset: 0x1086D6, size: 0x8, addend: 0x0, symName: '__ZN4core3fmt3num53_$LT$impl$u20$core..fmt..Display$u20$for$u20$i128$GT$3fmt17h0ed499401b77a163E', symObjAddr: 0xAE7C, symBinAddr: 0xEC938, symSize: 0x34 }
  - { offsetInCU: 0x4766, offset: 0x108715, size: 0x8, addend: 0x0, symName: __ZN4core3fmt3num8fmt_u12817he130897c82ab1c3dE, symObjAddr: 0xAEB0, symBinAddr: 0xEC96C, symSize: 0x188 }
  - { offsetInCU: 0x4993, offset: 0x108942, size: 0x8, addend: 0x0, symName: '__ZN73_$LT$core..fmt..num..LowerHex$u20$as$u20$core..fmt..num..GenericRadix$GT$5digit17h1a28f3bf517a998eE', symObjAddr: 0x19460, symBinAddr: 0xFAA48, symSize: 0x7C }
  - { offsetInCU: 0x49EC, offset: 0x10899B, size: 0x8, addend: 0x0, symName: '__ZN4core3fmt3num3imp51_$LT$impl$u20$core..fmt..Display$u20$for$u20$i8$GT$3fmt17h5eafb7a1f71d76d8E', symObjAddr: 0x1A73C, symBinAddr: 0xFBD24, symSize: 0xB8 }
  - { offsetInCU: 0x4AA8, offset: 0x108A57, size: 0x8, addend: 0x0, symName: '__ZN4core3fmt3num3imp51_$LT$impl$u20$core..fmt..Display$u20$for$u20$u8$GT$3fmt17hd6097b54a24e15ceE', symObjAddr: 0x1A7F4, symBinAddr: 0xFBDDC, symSize: 0xAC }
  - { offsetInCU: 0x4B57, offset: 0x108B06, size: 0x8, addend: 0x0, symName: '__ZN4core3fmt3num3imp52_$LT$impl$u20$core..fmt..Display$u20$for$u20$i16$GT$3fmt17h48327315271b085eE', symObjAddr: 0x1A8A0, symBinAddr: 0xFBE88, symSize: 0x130 }
  - { offsetInCU: 0x4C19, offset: 0x108BC8, size: 0x8, addend: 0x0, symName: '__ZN4core3fmt3num3imp52_$LT$impl$u20$core..fmt..Display$u20$for$u20$u16$GT$3fmt17hc53df28b802b4d3aE', symObjAddr: 0x1A9D0, symBinAddr: 0xFBFB8, symSize: 0x110 }
  - { offsetInCU: 0x4CDB, offset: 0x108C8A, size: 0x8, addend: 0x0, symName: '__ZN4core3fmt3num3imp52_$LT$impl$u20$core..fmt..Display$u20$for$u20$i32$GT$3fmt17hfd28ba1974e4b050E', symObjAddr: 0x1AAE0, symBinAddr: 0xFC0C8, symSize: 0x14C }
  - { offsetInCU: 0x4D88, offset: 0x108D37, size: 0x8, addend: 0x0, symName: '__ZN4core3fmt3num3imp52_$LT$impl$u20$core..fmt..Display$u20$for$u20$i64$GT$3fmt17hf27595de69f2158bE', symObjAddr: 0x1AD68, symBinAddr: 0xFC350, symSize: 0x0 }
  - { offsetInCU: 0x4E35, offset: 0x108DE4, size: 0x8, addend: 0x0, symName: '__ZN4core3fmt3num3imp52_$LT$impl$u20$core..fmt..Display$u20$for$u20$u32$GT$3fmt17h0c05a8a6fd42b7c8E', symObjAddr: 0x1AC2C, symBinAddr: 0xFC214, symSize: 0x13C }
  - { offsetInCU: 0x4EE2, offset: 0x108E91, size: 0x8, addend: 0x0, symName: '__ZN4core3fmt3num3imp52_$LT$impl$u20$core..fmt..Display$u20$for$u20$u64$GT$3fmt17h505bd75023b5ac5dE', symObjAddr: 0x1AEB4, symBinAddr: 0xFC49C, symSize: 0x0 }
  - { offsetInCU: 0x4F90, offset: 0x108F3F, size: 0x8, addend: 0x0, symName: __ZN4core3fmt3num3imp7exp_u6417hcd073d1b44bb22deE, symObjAddr: 0x1AFF0, symBinAddr: 0xFC5D8, symSize: 0x468 }
  - { offsetInCU: 0x5170, offset: 0x10911F, size: 0x8, addend: 0x0, symName: '__ZN4core3fmt3num3imp52_$LT$impl$u20$core..fmt..LowerExp$u20$for$u20$i8$GT$3fmt17h911f1d439b38040dE', symObjAddr: 0x1B458, symBinAddr: 0xFCA40, symSize: 0x2C }
  - { offsetInCU: 0x5192, offset: 0x109141, size: 0x8, addend: 0x0, symName: '__ZN4core3fmt3num3imp52_$LT$impl$u20$core..fmt..LowerExp$u20$for$u20$u8$GT$3fmt17h1ebbcaf82bf399d4E', symObjAddr: 0x1B484, symBinAddr: 0xFCA6C, symSize: 0x20 }
  - { offsetInCU: 0x51B4, offset: 0x109163, size: 0x8, addend: 0x0, symName: '__ZN4core3fmt3num3imp53_$LT$impl$u20$core..fmt..LowerExp$u20$for$u20$i16$GT$3fmt17h88f18af9a3ab675eE', symObjAddr: 0x1B4A4, symBinAddr: 0xFCA8C, symSize: 0x2C }
  - { offsetInCU: 0x51D6, offset: 0x109185, size: 0x8, addend: 0x0, symName: '__ZN4core3fmt3num3imp53_$LT$impl$u20$core..fmt..LowerExp$u20$for$u20$u16$GT$3fmt17h8c0a441416d1f97bE', symObjAddr: 0x1B4D0, symBinAddr: 0xFCAB8, symSize: 0x20 }
  - { offsetInCU: 0x51F8, offset: 0x1091A7, size: 0x8, addend: 0x0, symName: '__ZN4core3fmt3num3imp53_$LT$impl$u20$core..fmt..LowerExp$u20$for$u20$i32$GT$3fmt17h5f5a994634124148E', symObjAddr: 0x1B4F0, symBinAddr: 0xFCAD8, symSize: 0x2C }
  - { offsetInCU: 0x521A, offset: 0x1091C9, size: 0x8, addend: 0x0, symName: '__ZN4core3fmt3num3imp53_$LT$impl$u20$core..fmt..LowerExp$u20$for$u20$u32$GT$3fmt17h602878796ba88ac6E', symObjAddr: 0x1B51C, symBinAddr: 0xFCB04, symSize: 0x20 }
  - { offsetInCU: 0x523C, offset: 0x1091EB, size: 0x8, addend: 0x0, symName: '__ZN4core3fmt3num3imp53_$LT$impl$u20$core..fmt..LowerExp$u20$for$u20$i64$GT$3fmt17he964d4da233d2066E', symObjAddr: 0x1B53C, symBinAddr: 0xFCB24, symSize: 0x0 }
  - { offsetInCU: 0x525E, offset: 0x10920D, size: 0x8, addend: 0x0, symName: '__ZN4core3fmt3num3imp53_$LT$impl$u20$core..fmt..LowerExp$u20$for$u20$u64$GT$3fmt17h68c6747da003b932E', symObjAddr: 0x1B568, symBinAddr: 0xFCB50, symSize: 0x0 }
  - { offsetInCU: 0x5280, offset: 0x10922F, size: 0x8, addend: 0x0, symName: '__ZN4core3fmt3num3imp52_$LT$impl$u20$core..fmt..UpperExp$u20$for$u20$i8$GT$3fmt17hda62cb8a28c3a764E', symObjAddr: 0x1B588, symBinAddr: 0xFCB70, symSize: 0x2C }
  - { offsetInCU: 0x52A2, offset: 0x109251, size: 0x8, addend: 0x0, symName: '__ZN4core3fmt3num3imp52_$LT$impl$u20$core..fmt..UpperExp$u20$for$u20$u8$GT$3fmt17h89c18efcaa04094eE', symObjAddr: 0x1B5B4, symBinAddr: 0xFCB9C, symSize: 0x20 }
  - { offsetInCU: 0x52C4, offset: 0x109273, size: 0x8, addend: 0x0, symName: '__ZN4core3fmt3num3imp53_$LT$impl$u20$core..fmt..UpperExp$u20$for$u20$i16$GT$3fmt17hfa887cd0d592b830E', symObjAddr: 0x1B5D4, symBinAddr: 0xFCBBC, symSize: 0x2C }
  - { offsetInCU: 0x52E6, offset: 0x109295, size: 0x8, addend: 0x0, symName: '__ZN4core3fmt3num3imp53_$LT$impl$u20$core..fmt..UpperExp$u20$for$u20$u16$GT$3fmt17ha12871e8f1cddbf3E', symObjAddr: 0x1B600, symBinAddr: 0xFCBE8, symSize: 0x20 }
  - { offsetInCU: 0x5308, offset: 0x1092B7, size: 0x8, addend: 0x0, symName: '__ZN4core3fmt3num3imp53_$LT$impl$u20$core..fmt..UpperExp$u20$for$u20$i32$GT$3fmt17h0dfff9fa1919ae5aE', symObjAddr: 0x1B620, symBinAddr: 0xFCC08, symSize: 0x2C }
  - { offsetInCU: 0x532A, offset: 0x1092D9, size: 0x8, addend: 0x0, symName: '__ZN4core3fmt3num3imp53_$LT$impl$u20$core..fmt..UpperExp$u20$for$u20$u32$GT$3fmt17h5d30ee19eab338c5E', symObjAddr: 0x1B64C, symBinAddr: 0xFCC34, symSize: 0x20 }
  - { offsetInCU: 0x534C, offset: 0x1092FB, size: 0x8, addend: 0x0, symName: '__ZN4core3fmt3num3imp53_$LT$impl$u20$core..fmt..UpperExp$u20$for$u20$i64$GT$3fmt17ha9daade3b4b9e44bE', symObjAddr: 0x1B66C, symBinAddr: 0xFCC54, symSize: 0x0 }
  - { offsetInCU: 0x536E, offset: 0x10931D, size: 0x8, addend: 0x0, symName: '__ZN4core3fmt3num3imp53_$LT$impl$u20$core..fmt..UpperExp$u20$for$u20$u64$GT$3fmt17hd4ac599292f06d1bE', symObjAddr: 0x1B698, symBinAddr: 0xFCC80, symSize: 0x0 }
  - { offsetInCU: 0x539E, offset: 0x10934D, size: 0x8, addend: 0x0, symName: '__ZN4core3fmt3num52_$LT$impl$u20$core..fmt..LowerHex$u20$for$u20$i8$GT$3fmt17h58fc7a712b36ec73E', symObjAddr: 0x19670, symBinAddr: 0xFAC58, symSize: 0x0 }
  - { offsetInCU: 0x5490, offset: 0x10943F, size: 0x8, addend: 0x0, symName: '__ZN4core3fmt3num52_$LT$impl$u20$core..fmt..UpperHex$u20$for$u20$i8$GT$3fmt17hb0f882389679147cE', symObjAddr: 0x1970C, symBinAddr: 0xFACF4, symSize: 0x0 }
  - { offsetInCU: 0x5582, offset: 0x109531, size: 0x8, addend: 0x0, symName: '__ZN73_$LT$core..fmt..num..UpperHex$u20$as$u20$core..fmt..num..GenericRadix$GT$5digit17h8b7b71316593bb5fE', symObjAddr: 0x194DC, symBinAddr: 0xFAAC4, symSize: 0x7C }
  - { offsetInCU: 0x5610, offset: 0x1095BF, size: 0x8, addend: 0x0, symName: '__ZN4core3fmt3num53_$LT$impl$u20$core..fmt..LowerHex$u20$for$u20$i16$GT$3fmt17hdce2d8bbbcff174aE', symObjAddr: 0x198C0, symBinAddr: 0xFAEA8, symSize: 0x0 }
  - { offsetInCU: 0x570E, offset: 0x1096BD, size: 0x8, addend: 0x0, symName: '__ZN4core3fmt3num53_$LT$impl$u20$core..fmt..UpperHex$u20$for$u20$i16$GT$3fmt17hb02aba9bd9cef535E', symObjAddr: 0x1995C, symBinAddr: 0xFAF44, symSize: 0x0 }
  - { offsetInCU: 0x5848, offset: 0x1097F7, size: 0x8, addend: 0x0, symName: '__ZN4core3fmt3num53_$LT$impl$u20$core..fmt..LowerHex$u20$for$u20$i32$GT$3fmt17h1b5e2773fc970974E', symObjAddr: 0x19B10, symBinAddr: 0xFB0F8, symSize: 0x0 }
  - { offsetInCU: 0x5946, offset: 0x1098F5, size: 0x8, addend: 0x0, symName: '__ZN4core3fmt3num53_$LT$impl$u20$core..fmt..UpperHex$u20$for$u20$i32$GT$3fmt17h057c99ff5098550aE', symObjAddr: 0x19BAC, symBinAddr: 0xFB194, symSize: 0x0 }
  - { offsetInCU: 0x5A44, offset: 0x1099F3, size: 0x8, addend: 0x0, symName: '__ZN4core3fmt3num53_$LT$impl$u20$core..fmt..LowerHex$u20$for$u20$i64$GT$3fmt17hde02608c66398497E', symObjAddr: 0x19D60, symBinAddr: 0xFB348, symSize: 0x0 }
  - { offsetInCU: 0x5B42, offset: 0x109AF1, size: 0x8, addend: 0x0, symName: '__ZN4core3fmt3num53_$LT$impl$u20$core..fmt..UpperHex$u20$for$u20$i64$GT$3fmt17h7264e8ec8c6f816bE', symObjAddr: 0x19DFC, symBinAddr: 0xFB3E4, symSize: 0x0 }
  - { offsetInCU: 0x5C40, offset: 0x109BEF, size: 0x8, addend: 0x0, symName: '__ZN4core3fmt3num54_$LT$impl$u20$core..fmt..LowerHex$u20$for$u20$i128$GT$3fmt17h2c42baafa26bde9cE', symObjAddr: 0x19FC8, symBinAddr: 0xFB5B0, symSize: 0x0 }
  - { offsetInCU: 0x5D76, offset: 0x109D25, size: 0x8, addend: 0x0, symName: '__ZN4core3fmt3num54_$LT$impl$u20$core..fmt..UpperHex$u20$for$u20$i128$GT$3fmt17h7c426efc9921690cE', symObjAddr: 0x1A070, symBinAddr: 0xFB658, symSize: 0x0 }
  - { offsetInCU: 0x5EC7, offset: 0x109E76, size: 0x8, addend: 0x0, symName: '__ZN71_$LT$core..fmt..num..Binary$u20$as$u20$core..fmt..num..GenericRadix$GT$5digit17hcac6f7cebaf32a2eE', symObjAddr: 0x19388, symBinAddr: 0xFA970, symSize: 0x6C }
  - { offsetInCU: 0x5F05, offset: 0x109EB4, size: 0x8, addend: 0x0, symName: '__ZN70_$LT$core..fmt..num..Octal$u20$as$u20$core..fmt..num..GenericRadix$GT$5digit17h189a0447268dbe56E', symObjAddr: 0x193F4, symBinAddr: 0xFA9DC, symSize: 0x6C }
  - { offsetInCU: 0x5F43, offset: 0x109EF2, size: 0x8, addend: 0x0, symName: '__ZN4core3fmt3num50_$LT$impl$u20$core..fmt..Binary$u20$for$u20$i8$GT$3fmt17h96f38ba2ab7269c8E', symObjAddr: 0x19558, symBinAddr: 0xFAB40, symSize: 0x0 }
  - { offsetInCU: 0x6036, offset: 0x109FE5, size: 0x8, addend: 0x0, symName: '__ZN4core3fmt3num49_$LT$impl$u20$core..fmt..Octal$u20$for$u20$i8$GT$3fmt17h7125ad8b79d301b8E', symObjAddr: 0x195E4, symBinAddr: 0xFABCC, symSize: 0x0 }
  - { offsetInCU: 0x6129, offset: 0x10A0D8, size: 0x8, addend: 0x0, symName: '__ZN4core3fmt3num51_$LT$impl$u20$core..fmt..Binary$u20$for$u20$i16$GT$3fmt17hdd8ff5911a6ca671E', symObjAddr: 0x197A8, symBinAddr: 0xFAD90, symSize: 0x0 }
  - { offsetInCU: 0x61FF, offset: 0x10A1AE, size: 0x8, addend: 0x0, symName: '__ZN4core3fmt3num50_$LT$impl$u20$core..fmt..Octal$u20$for$u20$i16$GT$3fmt17h49a1e0e38b7df8a8E', symObjAddr: 0x19834, symBinAddr: 0xFAE1C, symSize: 0x0 }
  - { offsetInCU: 0x62D5, offset: 0x10A284, size: 0x8, addend: 0x0, symName: '__ZN4core3fmt3num51_$LT$impl$u20$core..fmt..Binary$u20$for$u20$i32$GT$3fmt17hb60e6dfd667b2fc9E', symObjAddr: 0x199F8, symBinAddr: 0xFAFE0, symSize: 0x0 }
  - { offsetInCU: 0x63AB, offset: 0x10A35A, size: 0x8, addend: 0x0, symName: '__ZN4core3fmt3num50_$LT$impl$u20$core..fmt..Octal$u20$for$u20$i32$GT$3fmt17hdecba10aaa77dfb1E', symObjAddr: 0x19A84, symBinAddr: 0xFB06C, symSize: 0x0 }
  - { offsetInCU: 0x6481, offset: 0x10A430, size: 0x8, addend: 0x0, symName: '__ZN4core3fmt3num51_$LT$impl$u20$core..fmt..Binary$u20$for$u20$i64$GT$3fmt17h371c782ba7af26fcE', symObjAddr: 0x19C48, symBinAddr: 0xFB230, symSize: 0x0 }
  - { offsetInCU: 0x6557, offset: 0x10A506, size: 0x8, addend: 0x0, symName: '__ZN4core3fmt3num50_$LT$impl$u20$core..fmt..Octal$u20$for$u20$i64$GT$3fmt17hf40f11cb975494c6E', symObjAddr: 0x19CD4, symBinAddr: 0xFB2BC, symSize: 0x0 }
  - { offsetInCU: 0x662D, offset: 0x10A5DC, size: 0x8, addend: 0x0, symName: '__ZN4core3fmt3num52_$LT$impl$u20$core..fmt..Binary$u20$for$u20$i128$GT$3fmt17hb0a72f6022fb9d34E', symObjAddr: 0x19E98, symBinAddr: 0xFB480, symSize: 0x0 }
  - { offsetInCU: 0x6733, offset: 0x10A6E2, size: 0x8, addend: 0x0, symName: '__ZN4core3fmt3num51_$LT$impl$u20$core..fmt..Octal$u20$for$u20$i128$GT$3fmt17hf27fe160f9ae8f52E', symObjAddr: 0x19F30, symBinAddr: 0xFB518, symSize: 0x0 }
  - { offsetInCU: 0x6861, offset: 0x10A810, size: 0x8, addend: 0x0, symName: '__ZN4core3fmt3num50_$LT$impl$u20$core..fmt..Debug$u20$for$u20$u32$GT$3fmt17h231dfccf9f0e4cabE', symObjAddr: 0x1A118, symBinAddr: 0xFB700, symSize: 0x210 }
  - { offsetInCU: 0x6A29, offset: 0x10A9D8, size: 0x8, addend: 0x0, symName: '__ZN4core3fmt3num50_$LT$impl$u20$core..fmt..Debug$u20$for$u20$u64$GT$3fmt17h9601cd59d7a3722fE', symObjAddr: 0x1A328, symBinAddr: 0xFB910, symSize: 0x204 }
  - { offsetInCU: 0x6BDD, offset: 0x10AB8C, size: 0x8, addend: 0x0, symName: '__ZN4core3fmt3num52_$LT$impl$u20$core..fmt..Debug$u20$for$u20$usize$GT$3fmt17hb03d6dd106220962E', symObjAddr: 0x1A52C, symBinAddr: 0xFBB14, symSize: 0x210 }
  - { offsetInCU: 0x6D77, offset: 0x10AD26, size: 0x8, addend: 0x0, symName: __ZN4core3fmt3num8exp_u12817hcde1fb455508efb3E, symObjAddr: 0x1B6B8, symBinAddr: 0xFCCA0, symSize: 0x834 }
  - { offsetInCU: 0x6F5F, offset: 0x10AF0E, size: 0x8, addend: 0x0, symName: '__ZN4core3fmt3num54_$LT$impl$u20$core..fmt..LowerExp$u20$for$u20$i128$GT$3fmt17hc81553877a4c10e0E', symObjAddr: 0x1BEEC, symBinAddr: 0xFD4D4, symSize: 0x38 }
  - { offsetInCU: 0x6F81, offset: 0x10AF30, size: 0x8, addend: 0x0, symName: '__ZN4core3fmt3num54_$LT$impl$u20$core..fmt..LowerExp$u20$for$u20$u128$GT$3fmt17h7376a87b1340a450E', symObjAddr: 0x1BF24, symBinAddr: 0xFD50C, symSize: 0x20 }
  - { offsetInCU: 0x6FA3, offset: 0x10AF52, size: 0x8, addend: 0x0, symName: '__ZN4core3fmt3num54_$LT$impl$u20$core..fmt..UpperExp$u20$for$u20$i128$GT$3fmt17h3d33c0adec090145E', symObjAddr: 0x1BF44, symBinAddr: 0xFD52C, symSize: 0x38 }
  - { offsetInCU: 0x6FC5, offset: 0x10AF74, size: 0x8, addend: 0x0, symName: '__ZN4core3fmt3num54_$LT$impl$u20$core..fmt..UpperExp$u20$for$u20$u128$GT$3fmt17h8f55521e8950bbbaE', symObjAddr: 0x1BF7C, symBinAddr: 0xFD564, symSize: 0x20 }
  - { offsetInCU: 0x6FF6, offset: 0x10AFA5, size: 0x8, addend: 0x0, symName: '__ZN59_$LT$core..fmt..Arguments$u20$as$u20$core..fmt..Display$GT$3fmt17h0362ede91b982495E', symObjAddr: 0xB63C, symBinAddr: 0xED0F8, symSize: 0x18 }
  - { offsetInCU: 0x7011, offset: 0x10AFC0, size: 0x8, addend: 0x0, symName: '__ZN57_$LT$core..fmt..Arguments$u20$as$u20$core..fmt..Debug$GT$3fmt17h19936b88691de364E', symObjAddr: 0xB624, symBinAddr: 0xED0E0, symSize: 0x18 }
  - { offsetInCU: 0x7088, offset: 0x10B037, size: 0x8, addend: 0x0, symName: __ZN4core3fmt5write17h8630d3d32be49b4aE, symObjAddr: 0xB654, symBinAddr: 0xED110, symSize: 0x204 }
  - { offsetInCU: 0x7328, offset: 0x10B2D7, size: 0x8, addend: 0x0, symName: __ZN4core3fmt9Formatter12pad_integral12write_prefix17hdf914f54bfd860b4E, symObjAddr: 0xBC30, symBinAddr: 0xED6EC, symSize: 0x7C }
  - { offsetInCU: 0x7377, offset: 0x10B326, size: 0x8, addend: 0x0, symName: '__ZN55_$LT$core..fmt..Error$u20$as$u20$core..fmt..Display$GT$3fmt17h890883a377a315d8E', symObjAddr: 0xD444, symBinAddr: 0xEEF00, symSize: 0x20 }
  - { offsetInCU: 0x73B0, offset: 0x10B35F, size: 0x8, addend: 0x0, symName: '__ZN40_$LT$str$u20$as$u20$core..fmt..Debug$GT$3fmt17h2a2fd712b16a28aeE', symObjAddr: 0xD4A8, symBinAddr: 0xEEF64, symSize: 0x34C }
  - { offsetInCU: 0x7796, offset: 0x10B745, size: 0x8, addend: 0x0, symName: '__ZN41_$LT$char$u20$as$u20$core..fmt..Debug$GT$3fmt17hacb486c340cf4e56E', symObjAddr: 0xD814, symBinAddr: 0xEF2D0, symSize: 0x164 }
  - { offsetInCU: 0x78B6, offset: 0x10B865, size: 0x8, addend: 0x0, symName: '__ZN43_$LT$char$u20$as$u20$core..fmt..Display$GT$3fmt17hddd0e07d02e84d9cE', symObjAddr: 0xD978, symBinAddr: 0xEF434, symSize: 0xF0 }
  - { offsetInCU: 0x7942, offset: 0x10B8F1, size: 0x8, addend: 0x0, symName: __ZN4core3fmt17pointer_fmt_inner17hd3afa9a5cc75d6dcE, symObjAddr: 0xDA68, symBinAddr: 0xEF524, symSize: 0xE0 }
  - { offsetInCU: 0x7A7D, offset: 0x10BA2C, size: 0x8, addend: 0x0, symName: '__ZN52_$LT$$BP$const$u20$T$u20$as$u20$core..fmt..Debug$GT$3fmt17h558028fc822070b8E', symObjAddr: 0xDB48, symBinAddr: 0xEF604, symSize: 0xE4 }
  - { offsetInCU: 0x7BBB, offset: 0x10BB6A, size: 0x8, addend: 0x0, symName: '__ZN53_$LT$core..fmt..Error$u20$as$u20$core..fmt..Debug$GT$3fmt17h69fe7ba5e4ec8f0aE', symObjAddr: 0x1BF9C, symBinAddr: 0xFD584, symSize: 0x24 }
  - { offsetInCU: 0x7BF2, offset: 0x10BBA1, size: 0x8, addend: 0x0, symName: '__ZN42_$LT$$RF$T$u20$as$u20$core..fmt..Debug$GT$3fmt17h0537a41e2705d035E', symObjAddr: 0x1BFC0, symBinAddr: 0xFD5A8, symSize: 0x1C }
  - { offsetInCU: 0x7C0D, offset: 0x10BBBC, size: 0x8, addend: 0x0, symName: '__ZN42_$LT$$RF$T$u20$as$u20$core..fmt..Debug$GT$3fmt17h43f28a4599f1bb7aE', symObjAddr: 0x1BFDC, symBinAddr: 0xFD5C4, symSize: 0x14 }
  - { offsetInCU: 0x7C28, offset: 0x10BBD7, size: 0x8, addend: 0x0, symName: '__ZN42_$LT$$RF$T$u20$as$u20$core..fmt..Debug$GT$3fmt17h8f356d1909fcb793E', symObjAddr: 0x1BFF0, symBinAddr: 0xFD5D8, symSize: 0x14 }
  - { offsetInCU: 0x7C43, offset: 0x10BBF2, size: 0x8, addend: 0x0, symName: '__ZN42_$LT$$RF$T$u20$as$u20$core..fmt..Debug$GT$3fmt17hd75f047147141cc6E', symObjAddr: 0x1C004, symBinAddr: 0xFD5EC, symSize: 0x18 }
  - { offsetInCU: 0x7C65, offset: 0x10BC14, size: 0x8, addend: 0x0, symName: '__ZN44_$LT$$RF$T$u20$as$u20$core..fmt..Display$GT$3fmt17h4c63b828a730399fE', symObjAddr: 0x1C01C, symBinAddr: 0xFD604, symSize: 0x14 }
  - { offsetInCU: 0x7C80, offset: 0x10BC2F, size: 0x8, addend: 0x0, symName: '__ZN44_$LT$$RF$T$u20$as$u20$core..fmt..Display$GT$3fmt17hb0165fdc293d5197E', symObjAddr: 0x1C030, symBinAddr: 0xFD618, symSize: 0x14 }
  - { offsetInCU: 0x7C9B, offset: 0x10BC4A, size: 0x8, addend: 0x0, symName: '__ZN44_$LT$$RF$T$u20$as$u20$core..fmt..Display$GT$3fmt17hc09d94384d9d9a60E', symObjAddr: 0x1C044, symBinAddr: 0xFD62C, symSize: 0x1C }
  - { offsetInCU: 0x7CD4, offset: 0x10BC83, size: 0x8, addend: 0x0, symName: '__ZN45_$LT$$RF$T$u20$as$u20$core..fmt..LowerHex$GT$3fmt17h859950565d5aea71E', symObjAddr: 0x1C060, symBinAddr: 0xFD648, symSize: 0xA0 }
  - { offsetInCU: 0x7DF0, offset: 0x10BD9F, size: 0x8, addend: 0x0, symName: '__ZN4core3f6421_$LT$impl$u20$f64$GT$7to_bits13ct_f64_to_u6417ha20b2f002642d2bdE', symObjAddr: 0x170, symBinAddr: 0xE2308, symSize: 0x8C }
  - { offsetInCU: 0x7E69, offset: 0x10BE18, size: 0x8, addend: 0x0, symName: '__ZN4core3f6421_$LT$impl$u20$f64$GT$9from_bits13ct_u64_to_f6417h4e349308d305198dE', symObjAddr: 0x1FC, symBinAddr: 0xE2394, symSize: 0x9C }
  - { offsetInCU: 0x8BF5, offset: 0x10CBA4, size: 0x8, addend: 0x0, symName: __ZN4core3num7dec2flt7decimal7Decimal5round17hd16ae2ae28c29b10E, symObjAddr: 0x298, symBinAddr: 0xE2430, symSize: 0xC4 }
  - { offsetInCU: 0x8C43, offset: 0x10CBF2, size: 0x8, addend: 0x0, symName: __ZN4core3num7dec2flt7decimal7Decimal10left_shift17h24aa99fe2e4d3074E, symObjAddr: 0x35C, symBinAddr: 0xE24F4, symSize: 0x210 }
  - { offsetInCU: 0x8CEE, offset: 0x10CC9D, size: 0x8, addend: 0x0, symName: __ZN4core3num7dec2flt7decimal7Decimal11right_shift17h748148ee8495a2b5E, symObjAddr: 0x56C, symBinAddr: 0xE2704, symSize: 0x1BC }
  - { offsetInCU: 0x8D82, offset: 0x10CD31, size: 0x8, addend: 0x0, symName: __ZN4core3num7dec2flt7decimal13parse_decimal17h98c056d3ff8e0d67E, symObjAddr: 0x728, symBinAddr: 0xE28C0, symSize: 0x390 }
  - { offsetInCU: 0x917F, offset: 0x10D12E, size: 0x8, addend: 0x0, symName: '__ZN59_$LT$f32$u20$as$u20$core..num..dec2flt..float..RawFloat$GT$15pow10_fast_path17h4d55481b71f35515E', symObjAddr: 0xAB8, symBinAddr: 0xE2C50, symSize: 0x20 }
  - { offsetInCU: 0x9193, offset: 0x10D142, size: 0x8, addend: 0x0, symName: '__ZN59_$LT$f32$u20$as$u20$core..num..dec2flt..float..RawFloat$GT$8classify17hc27441c31002d95dE', symObjAddr: 0xAD8, symBinAddr: 0xE2C70, symSize: 0x50 }
  - { offsetInCU: 0x9232, offset: 0x10D1E1, size: 0x8, addend: 0x0, symName: '__ZN59_$LT$f64$u20$as$u20$core..num..dec2flt..float..RawFloat$GT$15pow10_fast_path17h871d8ae4502bcb24E', symObjAddr: 0xB28, symBinAddr: 0xE2CC0, symSize: 0x20 }
  - { offsetInCU: 0x92A9, offset: 0x10D258, size: 0x8, addend: 0x0, symName: __ZN4core3num7dec2flt6lemire13compute_float17h80d09028af7fcd72E, symObjAddr: 0xB48, symBinAddr: 0xE2CE0, symSize: 0x164 }
  - { offsetInCU: 0x9366, offset: 0x10D315, size: 0x8, addend: 0x0, symName: __ZN4core3num7dec2flt6lemire13compute_float17hc5ce300209ab2675E, symObjAddr: 0xCAC, symBinAddr: 0xE2E44, symSize: 0x160 }
  - { offsetInCU: 0x9416, offset: 0x10D3C5, size: 0x8, addend: 0x0, symName: __ZN4core3num7dec2flt6lemire22compute_product_approx17hb90ec3438e95cea6E, symObjAddr: 0xE0C, symBinAddr: 0xE2FA4, symSize: 0x6C }
  - { offsetInCU: 0x94DA, offset: 0x10D489, size: 0x8, addend: 0x0, symName: __ZN4core3num7dec2flt5parse12parse_number17h08553c21a3a59919E, symObjAddr: 0xE78, symBinAddr: 0xE3010, symSize: 0x45C }
  - { offsetInCU: 0x9A56, offset: 0x10DA05, size: 0x8, addend: 0x0, symName: '__ZN74_$LT$core..num..dec2flt..ParseFloatError$u20$as$u20$core..fmt..Display$GT$3fmt17hde41c9fe53545b03E', symObjAddr: 0x12D4, symBinAddr: 0xE346C, symSize: 0x44 }
  - { offsetInCU: 0x9B55, offset: 0x10DB04, size: 0x8, addend: 0x0, symName: '__ZN4core3num7dec2flt60_$LT$impl$u20$core..str..traits..FromStr$u20$for$u20$f32$GT$8from_str17h6163c5decc5a39cbE', symObjAddr: 0x14150, symBinAddr: 0xF5AEC, symSize: 0x484 }
  - { offsetInCU: 0x9B80, offset: 0x10DB2F, size: 0x8, addend: 0x0, symName: '__ZN4core3num7dec2flt60_$LT$impl$u20$core..str..traits..FromStr$u20$for$u20$f32$GT$8from_str17h6163c5decc5a39cbE', symObjAddr: 0x14150, symBinAddr: 0xF5AEC, symSize: 0x484 }
  - { offsetInCU: 0x9E38, offset: 0x10DDE7, size: 0x8, addend: 0x0, symName: '__ZN4core3num7dec2flt60_$LT$impl$u20$core..str..traits..FromStr$u20$for$u20$f64$GT$8from_str17hdaa7a5acacff4b93E', symObjAddr: 0x145D4, symBinAddr: 0xF5F70, symSize: 0x448 }
  - { offsetInCU: 0xA4D3, offset: 0x10E482, size: 0x8, addend: 0x0, symName: __ZN4core3num9diy_float2Fp12normalize_to17he85d2f46714f72fcE, symObjAddr: 0x1318, symBinAddr: 0xE34B0, symSize: 0x70 }
  - { offsetInCU: 0xA51C, offset: 0x10E4CB, size: 0x8, addend: 0x0, symName: __ZN4core3num7flt2dec9estimator23estimate_scaling_factor17hd6074613e6516134E, symObjAddr: 0x1388, symBinAddr: 0xE3520, symSize: 0x3C }
  - { offsetInCU: 0xA560, offset: 0x10E50F, size: 0x8, addend: 0x0, symName: __ZN4core3num7flt2dec8strategy6dragon9mul_pow1017hbfe7b10d95d3c8caE, symObjAddr: 0x13C4, symBinAddr: 0xE355C, symSize: 0x174 }
  - { offsetInCU: 0xA762, offset: 0x10E711, size: 0x8, addend: 0x0, symName: __ZN4core3num7flt2dec8strategy6dragon15format_shortest17h6efdd1be6a8ee142E, symObjAddr: 0x1538, symBinAddr: 0xE36D0, symSize: 0xC88 }
  - { offsetInCU: 0xC36D, offset: 0x11031C, size: 0x8, addend: 0x0, symName: __ZN4core3num7flt2dec8strategy6dragon12format_exact17h1447e822fe08c19cE, symObjAddr: 0x21C0, symBinAddr: 0xE4358, symSize: 0xB14 }
  - { offsetInCU: 0xDB7E, offset: 0x111B2D, size: 0x8, addend: 0x0, symName: __ZN4core3num7flt2dec8strategy5grisu12cached_power17hec63df0d93328f6cE, symObjAddr: 0x2CD4, symBinAddr: 0xE4E6C, symSize: 0x78 }
  - { offsetInCU: 0xDBC1, offset: 0x111B70, size: 0x8, addend: 0x0, symName: __ZN4core3num7flt2dec8strategy5grisu19format_shortest_opt17h9762485b528300b6E, symObjAddr: 0x2D4C, symBinAddr: 0xE4EE4, symSize: 0x7E4 }
  - { offsetInCU: 0xDCE2, offset: 0x111C91, size: 0x8, addend: 0x0, symName: __ZN4core3num7flt2dec8strategy5grisu15format_shortest17h09ece9a42e6267adE, symObjAddr: 0x3530, symBinAddr: 0xE56C8, symSize: 0x7C }
  - { offsetInCU: 0xDCF6, offset: 0x111CA5, size: 0x8, addend: 0x0, symName: __ZN4core3num7flt2dec8strategy5grisu16format_exact_opt17h28581b73ef8b9eb6E, symObjAddr: 0x35AC, symBinAddr: 0xE5744, symSize: 0x428 }
  - { offsetInCU: 0xDD58, offset: 0x111D07, size: 0x8, addend: 0x0, symName: __ZN4core3num7flt2dec8strategy5grisu16format_exact_opt14possibly_round17h43b494b28698a5bfE, symObjAddr: 0x39D4, symBinAddr: 0xE5B6C, symSize: 0x1E0 }
  - { offsetInCU: 0xDEC0, offset: 0x111E6F, size: 0x8, addend: 0x0, symName: __ZN4core3num7flt2dec8strategy5grisu12format_exact17hb837b55a0edd02beE, symObjAddr: 0x3BB4, symBinAddr: 0xE5D4C, symSize: 0x90 }
  - { offsetInCU: 0xDEFF, offset: 0x111EAE, size: 0x8, addend: 0x0, symName: __ZN4core3num7flt2dec8round_up17h9a0d92c9fe452a85E, symObjAddr: 0x3C44, symBinAddr: 0xE5DDC, symSize: 0xB4 }
  - { offsetInCU: 0xDFB5, offset: 0x111F64, size: 0x8, addend: 0x0, symName: __ZN4core3num7flt2dec17digits_to_dec_str17hbb31eff2951dc051E, symObjAddr: 0x3CF8, symBinAddr: 0xE5E90, symSize: 0x14C }
  - { offsetInCU: 0xE040, offset: 0x111FEF, size: 0x8, addend: 0x0, symName: __ZN4core3num7flt2dec17digits_to_exp_str17h32c51e806c2d4939E, symObjAddr: 0x3E44, symBinAddr: 0xE5FDC, symSize: 0x168 }
  - { offsetInCU: 0xE289, offset: 0x112238, size: 0x8, addend: 0x0, symName: __ZN4core3num6bignum8Big32x408from_u6417hf33608f0cf7739a8E, symObjAddr: 0x11C10, symBinAddr: 0xF35AC, symSize: 0x68 }
  - { offsetInCU: 0xE29D, offset: 0x11224C, size: 0x8, addend: 0x0, symName: __ZN4core3num6bignum8Big32x406digits17hc1fd428830bdd635E, symObjAddr: 0x11C78, symBinAddr: 0xF3614, symSize: 0x2C }
  - { offsetInCU: 0xE2EB, offset: 0x11229A, size: 0x8, addend: 0x0, symName: __ZN4core3num6bignum8Big32x407get_bit17h9f501896466ef672E, symObjAddr: 0x11CA4, symBinAddr: 0xF3640, symSize: 0x38 }
  - { offsetInCU: 0xE2FF, offset: 0x1122AE, size: 0x8, addend: 0x0, symName: __ZN4core3num6bignum8Big32x407is_zero17h64d87fc731c0d44fE, symObjAddr: 0x11CDC, symBinAddr: 0xF3678, symSize: 0x50 }
  - { offsetInCU: 0xE395, offset: 0x112344, size: 0x8, addend: 0x0, symName: __ZN4core3num6bignum8Big32x4010bit_length17h04bbda6695d0cfe0E, symObjAddr: 0x11D2C, symBinAddr: 0xF36C8, symSize: 0x7C }
  - { offsetInCU: 0xE46F, offset: 0x11241E, size: 0x8, addend: 0x0, symName: __ZN4core3num6bignum8Big32x403add17h687834b6a02feb63E, symObjAddr: 0x11DA8, symBinAddr: 0xF3744, symSize: 0xA0 }
  - { offsetInCU: 0xE530, offset: 0x1124DF, size: 0x8, addend: 0x0, symName: __ZN4core3num6bignum8Big32x409add_small17hde7d9d54567a485fE, symObjAddr: 0x11E48, symBinAddr: 0xF37E4, symSize: 0x3EC }
  - { offsetInCU: 0xE593, offset: 0x112542, size: 0x8, addend: 0x0, symName: __ZN4core3num6bignum8Big32x403sub17hf2b3ee036235da71E, symObjAddr: 0x12234, symBinAddr: 0xF3BD0, symSize: 0x98 }
  - { offsetInCU: 0xE654, offset: 0x112603, size: 0x8, addend: 0x0, symName: __ZN4core3num6bignum8Big32x409mul_small17h4782eab4d0cd5462E, symObjAddr: 0x122CC, symBinAddr: 0xF3C68, symSize: 0x88 }
  - { offsetInCU: 0xE6E9, offset: 0x112698, size: 0x8, addend: 0x0, symName: __ZN4core3num6bignum8Big32x408mul_pow217h526abf9c048f7dacE, symObjAddr: 0x12354, symBinAddr: 0xF3CF0, symSize: 0x1A8 }
  - { offsetInCU: 0xE7DE, offset: 0x11278D, size: 0x8, addend: 0x0, symName: __ZN4core3num6bignum8Big32x408mul_pow517ha98e2a9ba17176a8E, symObjAddr: 0x124FC, symBinAddr: 0xF3E98, symSize: 0x174 }
  - { offsetInCU: 0xEA2E, offset: 0x1129DD, size: 0x8, addend: 0x0, symName: __ZN4core3num6bignum8Big32x4010mul_digits17h414eb1b8d9477f80E, symObjAddr: 0x12670, symBinAddr: 0xF400C, symSize: 0x2EC }
  - { offsetInCU: 0xED3C, offset: 0x112CEB, size: 0x8, addend: 0x0, symName: __ZN4core3num6bignum8Big32x4013div_rem_small17hfd93443d909bea88E, symObjAddr: 0x1295C, symBinAddr: 0xF42F8, symSize: 0x88 }
  - { offsetInCU: 0xEDED, offset: 0x112D9C, size: 0x8, addend: 0x0, symName: __ZN4core3num6bignum8Big32x407div_rem17hd4d00e273d33e21dE, symObjAddr: 0x129E4, symBinAddr: 0xF4380, symSize: 0x288 }
  - { offsetInCU: 0xF2F0, offset: 0x11329F, size: 0x8, addend: 0x0, symName: '__ZN62_$LT$core..num..bignum..Big32x40$u20$as$u20$core..cmp..Ord$GT$3cmp17h159a97f66cbca18cE', symObjAddr: 0x12CFC, symBinAddr: 0xF4698, symSize: 0x70 }
  - { offsetInCU: 0xF56C, offset: 0x11351B, size: 0x8, addend: 0x0, symName: '__ZN69_$LT$core..num..bignum..Big32x40$u20$as$u20$core..cmp..PartialOrd$GT$11partial_cmp17hb45dc29cc450120eE', symObjAddr: 0x12C8C, symBinAddr: 0xF4628, symSize: 0x70 }
  - { offsetInCU: 0xF7F6, offset: 0x1137A5, size: 0x8, addend: 0x0, symName: '__ZN50_$LT$u32$u20$as$u20$core..num..bignum..FullOps$GT$12full_div_rem17h17bd1fa30a36d6b6E', symObjAddr: 0x11BE0, symBinAddr: 0xF357C, symSize: 0x30 }
  - { offsetInCU: 0xF81E, offset: 0x1137CD, size: 0x8, addend: 0x0, symName: '__ZN49_$LT$u8$u20$as$u20$core..num..bignum..FullOps$GT$12full_div_rem17h75602e7f142b225cE', symObjAddr: 0x11B74, symBinAddr: 0xF3510, symSize: 0x38 }
  - { offsetInCU: 0xF853, offset: 0x113802, size: 0x8, addend: 0x0, symName: '__ZN50_$LT$u16$u20$as$u20$core..num..bignum..FullOps$GT$12full_div_rem17hd4bb3e45df13efffE', symObjAddr: 0x11BAC, symBinAddr: 0xF3548, symSize: 0x34 }
  - { offsetInCU: 0xF890, offset: 0x11383F, size: 0x8, addend: 0x0, symName: '__ZN68_$LT$core..num..bignum..Big32x40$u20$as$u20$core..cmp..PartialEq$GT$2eq17hdf79d293918af9bfE', symObjAddr: 0x12C6C, symBinAddr: 0xF4608, symSize: 0x20 }
  - { offsetInCU: 0xF8DF, offset: 0x11388E, size: 0x8, addend: 0x0, symName: '__ZN64_$LT$core..num..bignum..Big32x40$u20$as$u20$core..fmt..Debug$GT$3fmt17h405ba926d7677a54E', symObjAddr: 0x12D6C, symBinAddr: 0xF4708, symSize: 0x198 }
  - { offsetInCU: 0xF9B0, offset: 0x11395F, size: 0x8, addend: 0x0, symName: __ZN4core3num6bignum5tests6Big8x38from_u6417h74188d9dac3da363E, symObjAddr: 0x12F04, symBinAddr: 0xF48A0, symSize: 0xB4 }
  - { offsetInCU: 0xF9CA, offset: 0x113979, size: 0x8, addend: 0x0, symName: __ZN4core3num6bignum5tests6Big8x36digits17he202f08be1178505E, symObjAddr: 0x12FB8, symBinAddr: 0xF4954, symSize: 0x30 }
  - { offsetInCU: 0xFA18, offset: 0x1139C7, size: 0x8, addend: 0x0, symName: __ZN4core3num6bignum5tests6Big8x37get_bit17h0e1c4c710ebb4468E, symObjAddr: 0x12FE8, symBinAddr: 0xF4984, symSize: 0x40 }
  - { offsetInCU: 0xFA39, offset: 0x1139E8, size: 0x8, addend: 0x0, symName: __ZN4core3num6bignum5tests6Big8x37is_zero17hb9f9726e770af787E, symObjAddr: 0x13028, symBinAddr: 0xF49C4, symSize: 0x84 }
  - { offsetInCU: 0xFABF, offset: 0x113A6E, size: 0x8, addend: 0x0, symName: __ZN4core3num6bignum5tests6Big8x310bit_length17h2b6f4646ef323ee0E, symObjAddr: 0x130AC, symBinAddr: 0xF4A48, symSize: 0xC4 }
  - { offsetInCU: 0xFBBB, offset: 0x113B6A, size: 0x8, addend: 0x0, symName: __ZN4core3num6bignum5tests6Big8x33add17h948faaa1a8c165a7E, symObjAddr: 0x13170, symBinAddr: 0xF4B0C, symSize: 0xB4 }
  - { offsetInCU: 0xFCAF, offset: 0x113C5E, size: 0x8, addend: 0x0, symName: __ZN4core3num6bignum5tests6Big8x39add_small17h7c586873abfedb12E, symObjAddr: 0x13224, symBinAddr: 0xF4BC0, symSize: 0x8C }
  - { offsetInCU: 0xFD12, offset: 0x113CC1, size: 0x8, addend: 0x0, symName: __ZN4core3num6bignum5tests6Big8x33sub17h7f2d192ef0fde246E, symObjAddr: 0x132B0, symBinAddr: 0xF4C4C, symSize: 0xA4 }
  - { offsetInCU: 0xFE00, offset: 0x113DAF, size: 0x8, addend: 0x0, symName: __ZN4core3num6bignum5tests6Big8x39mul_small17ha3f000384563bb71E, symObjAddr: 0x13354, symBinAddr: 0xF4CF0, symSize: 0xAC }
  - { offsetInCU: 0xFE8D, offset: 0x113E3C, size: 0x8, addend: 0x0, symName: __ZN4core3num6bignum5tests6Big8x38mul_pow217h409e1f0cf97db54eE, symObjAddr: 0x13400, symBinAddr: 0xF4D9C, symSize: 0x184 }
  - { offsetInCU: 0xFF79, offset: 0x113F28, size: 0x8, addend: 0x0, symName: __ZN4core3num6bignum5tests6Big8x38mul_pow517h09e298b889aa3aa9E, symObjAddr: 0x13584, symBinAddr: 0xF4F20, symSize: 0x154 }
  - { offsetInCU: 0x1018D, offset: 0x11413C, size: 0x8, addend: 0x0, symName: __ZN4core3num6bignum5tests6Big8x310mul_digits17hcb0fb8f31611ddf8E, symObjAddr: 0x136D8, symBinAddr: 0xF5074, symSize: 0x378 }
  - { offsetInCU: 0x1046F, offset: 0x11441E, size: 0x8, addend: 0x0, symName: __ZN4core3num6bignum5tests6Big8x313div_rem_small17he4384fa174304c80E, symObjAddr: 0x13A50, symBinAddr: 0xF53EC, symSize: 0xBC }
  - { offsetInCU: 0x1055D, offset: 0x11450C, size: 0x8, addend: 0x0, symName: __ZN4core3num6bignum5tests6Big8x37div_rem17hc155280b021aba53E, symObjAddr: 0x13B0C, symBinAddr: 0xF54A8, symSize: 0x2E8 }
  - { offsetInCU: 0x10A99, offset: 0x114A48, size: 0x8, addend: 0x0, symName: '__ZN67_$LT$core..num..bignum..tests..Big8x3$u20$as$u20$core..cmp..Ord$GT$3cmp17hbd4c61b8e656399eE', symObjAddr: 0x13EF4, symBinAddr: 0xF5890, symSize: 0xD4 }
  - { offsetInCU: 0x10C9A, offset: 0x114C49, size: 0x8, addend: 0x0, symName: '__ZN74_$LT$core..num..bignum..tests..Big8x3$u20$as$u20$core..cmp..PartialOrd$GT$11partial_cmp17h8683b3a9bae5c5a0E', symObjAddr: 0x13E20, symBinAddr: 0xF57BC, symSize: 0xD4 }
  - { offsetInCU: 0x10E9C, offset: 0x114E4B, size: 0x8, addend: 0x0, symName: '__ZN73_$LT$core..num..bignum..tests..Big8x3$u20$as$u20$core..cmp..PartialEq$GT$2eq17h562bcce21696cefdE', symObjAddr: 0x13DF4, symBinAddr: 0xF5790, symSize: 0x2C }
  - { offsetInCU: 0x10EEB, offset: 0x114E9A, size: 0x8, addend: 0x0, symName: '__ZN69_$LT$core..num..bignum..tests..Big8x3$u20$as$u20$core..fmt..Debug$GT$3fmt17h8a3b43793d2f604bE', symObjAddr: 0x13FC8, symBinAddr: 0xF5964, symSize: 0x188 }
  - { offsetInCU: 0x110CD, offset: 0x11507C, size: 0x8, addend: 0x0, symName: __ZN4core3num3fmt4Part5write17h7f6e746d9c902be2E, symObjAddr: 0x3FAC, symBinAddr: 0xE6144, symSize: 0x164 }
  - { offsetInCU: 0x111EB, offset: 0x11519A, size: 0x8, addend: 0x0, symName: __ZN4core3num3fmt9Formatted3len17h3e1a7aa8c631b27aE, symObjAddr: 0x4110, symBinAddr: 0xE62A8, symSize: 0x98 }
  - { offsetInCU: 0x11230, offset: 0x1151DF, size: 0x8, addend: 0x0, symName: __ZN4core3num3fmt9Formatted5write17hf55cbf53c26471beE, symObjAddr: 0x41A8, symBinAddr: 0xE6340, symSize: 0xB0 }
  - { offsetInCU: 0x1133E, offset: 0x1152ED, size: 0x8, addend: 0x0, symName: '__ZN72_$LT$core..num..error..TryFromIntError$u20$as$u20$core..fmt..Display$GT$3fmt17h1e169ade67654e4bE', symObjAddr: 0x4258, symBinAddr: 0xE63F0, symSize: 0x20 }
  - { offsetInCU: 0x11389, offset: 0x115338, size: 0x8, addend: 0x0, symName: '__ZN70_$LT$core..num..error..ParseIntError$u20$as$u20$core..fmt..Display$GT$3fmt17hce3f8bbe5f4c7286E', symObjAddr: 0x4278, symBinAddr: 0xE6410, symSize: 0x38 }
  - { offsetInCU: 0x113D6, offset: 0x115385, size: 0x8, addend: 0x0, symName: __ZN4core3num9int_log1030panic_for_nonpositive_argument17h90ab7e67c9a7d05bE, symObjAddr: 0x42B0, symBinAddr: 0x104BD8, symSize: 0x34 }
  - { offsetInCU: 0x1144E, offset: 0x1153FD, size: 0x8, addend: 0x0, symName: __ZN4core3num14overflow_panic3add17hf9e9bf0eb986a817E, symObjAddr: 0x42E4, symBinAddr: 0x104C0C, symSize: 0x34 }
  - { offsetInCU: 0x1147E, offset: 0x11542D, size: 0x8, addend: 0x0, symName: __ZN4core3num14overflow_panic3sub17hb079c81ac4a15e33E, symObjAddr: 0x4318, symBinAddr: 0x104C40, symSize: 0x34 }
  - { offsetInCU: 0x114AE, offset: 0x11545D, size: 0x8, addend: 0x0, symName: __ZN4core3num14overflow_panic3mul17hb825d9e189f63e34E, symObjAddr: 0x434C, symBinAddr: 0x104C74, symSize: 0x34 }
  - { offsetInCU: 0x114DE, offset: 0x11548D, size: 0x8, addend: 0x0, symName: __ZN4core3num14overflow_panic3div17h4939f55e8323534fE, symObjAddr: 0x4380, symBinAddr: 0x104CA8, symSize: 0x34 }
  - { offsetInCU: 0x1150E, offset: 0x1154BD, size: 0x8, addend: 0x0, symName: __ZN4core3num14overflow_panic3rem17hb2f4367d73b04758E, symObjAddr: 0x43B4, symBinAddr: 0x104CDC, symSize: 0x34 }
  - { offsetInCU: 0x1153E, offset: 0x1154ED, size: 0x8, addend: 0x0, symName: __ZN4core3num14overflow_panic3neg17h9642b774de3961aaE, symObjAddr: 0x43E8, symBinAddr: 0x104D10, symSize: 0x34 }
  - { offsetInCU: 0x1156E, offset: 0x11551D, size: 0x8, addend: 0x0, symName: __ZN4core3num14overflow_panic3shr17h2692405a7c5693c6E, symObjAddr: 0x441C, symBinAddr: 0x104D44, symSize: 0x34 }
  - { offsetInCU: 0x1159E, offset: 0x11554D, size: 0x8, addend: 0x0, symName: __ZN4core3num14overflow_panic3shl17h2aa2856cd579135cE, symObjAddr: 0x4450, symBinAddr: 0x104D78, symSize: 0x34 }
  - { offsetInCU: 0x115CF, offset: 0x11557E, size: 0x8, addend: 0x0, symName: __ZN4core3num23from_str_radix_panic_ct17h290ea173cc792b2dE, symObjAddr: 0x4484, symBinAddr: 0xE6448, symSize: 0x30 }
  - { offsetInCU: 0x11600, offset: 0x1155AF, size: 0x8, addend: 0x0, symName: __ZN4core3num23from_str_radix_panic_rt17h257f00ac21ddbe8fE, symObjAddr: 0x44B4, symBinAddr: 0xE6478, symSize: 0x44 }
  - { offsetInCU: 0x11631, offset: 0x1155E0, size: 0x8, addend: 0x0, symName: __ZN4core3num21from_str_radix_assert17h4df01b720a12056cE, symObjAddr: 0x44F8, symBinAddr: 0x104DAC, symSize: 0x1C }
  - { offsetInCU: 0x116EB, offset: 0x11569A, size: 0x8, addend: 0x0, symName: '__ZN73_$LT$core..num..nonzero..NonZero$LT$T$GT$$u20$as$u20$core..fmt..Debug$GT$3fmt17hccc0f89d35ead866E', symObjAddr: 0x14A1C, symBinAddr: 0xF63B8, symSize: 0x28 }
  - { offsetInCU: 0x11722, offset: 0x1156D1, size: 0x8, addend: 0x0, symName: '__ZN84_$LT$core..num..nonzero..NonZero$LT$u8$GT$$u20$as$u20$core..str..traits..FromStr$GT$8from_str17h528d8bbeb8408387E', symObjAddr: 0x14A44, symBinAddr: 0xF63E0, symSize: 0x160 }
  - { offsetInCU: 0x1182C, offset: 0x1157DB, size: 0x8, addend: 0x0, symName: '__ZN85_$LT$core..num..nonzero..NonZero$LT$u16$GT$$u20$as$u20$core..str..traits..FromStr$GT$8from_str17h87c26cee7a94e55bE', symObjAddr: 0x14BA4, symBinAddr: 0xF6540, symSize: 0x140 }
  - { offsetInCU: 0x11926, offset: 0x1158D5, size: 0x8, addend: 0x0, symName: '__ZN85_$LT$core..num..nonzero..NonZero$LT$u32$GT$$u20$as$u20$core..str..traits..FromStr$GT$8from_str17h78b550425237020bE', symObjAddr: 0x14CE4, symBinAddr: 0xF6680, symSize: 0x154 }
  - { offsetInCU: 0x11A20, offset: 0x1159CF, size: 0x8, addend: 0x0, symName: '__ZN85_$LT$core..num..nonzero..NonZero$LT$u64$GT$$u20$as$u20$core..str..traits..FromStr$GT$8from_str17h15fd1126bafd5220E', symObjAddr: 0x14E38, symBinAddr: 0xF67D4, symSize: 0x134 }
  - { offsetInCU: 0x11B28, offset: 0x115AD7, size: 0x8, addend: 0x0, symName: '__ZN86_$LT$core..num..nonzero..NonZero$LT$u128$GT$$u20$as$u20$core..str..traits..FromStr$GT$8from_str17h50bf5e8f56a0d799E', symObjAddr: 0x14F6C, symBinAddr: 0xF6908, symSize: 0x170 }
  - { offsetInCU: 0x11C38, offset: 0x115BE7, size: 0x8, addend: 0x0, symName: '__ZN87_$LT$core..num..nonzero..NonZero$LT$usize$GT$$u20$as$u20$core..str..traits..FromStr$GT$8from_str17hba75f2e4876f9cf9E', symObjAddr: 0x150DC, symBinAddr: 0xF6A78, symSize: 0x134 }
  - { offsetInCU: 0x11D4F, offset: 0x115CFE, size: 0x8, addend: 0x0, symName: '__ZN84_$LT$core..num..nonzero..NonZero$LT$i8$GT$$u20$as$u20$core..str..traits..FromStr$GT$8from_str17h9343665e492a7bc2E', symObjAddr: 0x15210, symBinAddr: 0xF6BAC, symSize: 0x34 }
  - { offsetInCU: 0x11D88, offset: 0x115D37, size: 0x8, addend: 0x0, symName: '__ZN85_$LT$core..num..nonzero..NonZero$LT$i16$GT$$u20$as$u20$core..str..traits..FromStr$GT$8from_str17hddd41e3c6564d39dE', symObjAddr: 0x15244, symBinAddr: 0xF6BE0, symSize: 0x40 }
  - { offsetInCU: 0x11DC1, offset: 0x115D70, size: 0x8, addend: 0x0, symName: '__ZN85_$LT$core..num..nonzero..NonZero$LT$i32$GT$$u20$as$u20$core..str..traits..FromStr$GT$8from_str17hab72eb28ee72d008E', symObjAddr: 0x15284, symBinAddr: 0xF6C20, symSize: 0x44 }
  - { offsetInCU: 0x11DFA, offset: 0x115DA9, size: 0x8, addend: 0x0, symName: '__ZN85_$LT$core..num..nonzero..NonZero$LT$i64$GT$$u20$as$u20$core..str..traits..FromStr$GT$8from_str17hbd09b60569114323E', symObjAddr: 0x152C8, symBinAddr: 0xF6C64, symSize: 0x64 }
  - { offsetInCU: 0x11E41, offset: 0x115DF0, size: 0x8, addend: 0x0, symName: '__ZN86_$LT$core..num..nonzero..NonZero$LT$i128$GT$$u20$as$u20$core..str..traits..FromStr$GT$8from_str17h42a6b2c28b6fb461E', symObjAddr: 0x1532C, symBinAddr: 0xF6CC8, symSize: 0x68 }
  - { offsetInCU: 0x11E88, offset: 0x115E37, size: 0x8, addend: 0x0, symName: '__ZN87_$LT$core..num..nonzero..NonZero$LT$isize$GT$$u20$as$u20$core..str..traits..FromStr$GT$8from_str17hc1fea849d35bb559E', symObjAddr: 0x15394, symBinAddr: 0xF6D30, symSize: 0x64 }
  - { offsetInCU: 0x12107, offset: 0x1160B6, size: 0x8, addend: 0x0, symName: '__ZN4core3num20_$LT$impl$u20$u8$GT$14from_str_radix17h132583589e88ed85E', symObjAddr: 0x15CD4, symBinAddr: 0xF7670, symSize: 0x294 }
  - { offsetInCU: 0x1229E, offset: 0x11624D, size: 0x8, addend: 0x0, symName: '__ZN4core3num21_$LT$impl$u20$u16$GT$14from_str_radix17h959fd21c20e39a88E', symObjAddr: 0x16324, symBinAddr: 0xF7CC0, symSize: 0x288 }
  - { offsetInCU: 0x12435, offset: 0x1163E4, size: 0x8, addend: 0x0, symName: '__ZN4core3num21_$LT$impl$u20$u32$GT$14from_str_radix17hbf666ac3befa7a9fE', symObjAddr: 0x169C4, symBinAddr: 0xF8360, symSize: 0x290 }
  - { offsetInCU: 0x125CC, offset: 0x11657B, size: 0x8, addend: 0x0, symName: '__ZN4core3num21_$LT$impl$u20$u64$GT$14from_str_radix17h4e6a4060492e2041E', symObjAddr: 0x17030, symBinAddr: 0xF89CC, symSize: 0x280 }
  - { offsetInCU: 0x12763, offset: 0x116712, size: 0x8, addend: 0x0, symName: '__ZN4core3num22_$LT$impl$u20$u128$GT$14from_str_radix17h5d125c6bae0edf55E', symObjAddr: 0x176D8, symBinAddr: 0xF9074, symSize: 0x2E8 }
  - { offsetInCU: 0x12955, offset: 0x116904, size: 0x8, addend: 0x0, symName: '__ZN4core3num23_$LT$impl$u20$usize$GT$14from_str_radix17ha2d1d31fc92dbc00E', symObjAddr: 0x17A10, symBinAddr: 0xF93AC, symSize: 0x50 }
  - { offsetInCU: 0x1297E, offset: 0x11692D, size: 0x8, addend: 0x0, symName: '__ZN4core3num23_$LT$impl$u20$isize$GT$14from_str_radix17h6223934f0d6f19c5E', symObjAddr: 0x179C0, symBinAddr: 0xF935C, symSize: 0x50 }
  - { offsetInCU: 0x12999, offset: 0x116948, size: 0x8, addend: 0x0, symName: '__ZN4core3num62_$LT$impl$u20$core..str..traits..FromStr$u20$for$u20$isize$GT$8from_str17he83691052b59b95bE', symObjAddr: 0x153F8, symBinAddr: 0xF6D94, symSize: 0x54 }
  - { offsetInCU: 0x129D2, offset: 0x116981, size: 0x8, addend: 0x0, symName: '__ZN4core3num59_$LT$impl$u20$core..str..traits..FromStr$u20$for$u20$i8$GT$8from_str17h03178a414366c566E', symObjAddr: 0x1544C, symBinAddr: 0xF6DE8, symSize: 0x14 }
  - { offsetInCU: 0x129F4, offset: 0x1169A3, size: 0x8, addend: 0x0, symName: '__ZN4core3num60_$LT$impl$u20$core..str..traits..FromStr$u20$for$u20$i16$GT$8from_str17h47ed18c50b141621E', symObjAddr: 0x15460, symBinAddr: 0xF6DFC, symSize: 0x14 }
  - { offsetInCU: 0x12A16, offset: 0x1169C5, size: 0x8, addend: 0x0, symName: '__ZN4core3num60_$LT$impl$u20$core..str..traits..FromStr$u20$for$u20$i32$GT$8from_str17hfd090e144aab4d2bE', symObjAddr: 0x15474, symBinAddr: 0xF6E10, symSize: 0x14 }
  - { offsetInCU: 0x12A38, offset: 0x1169E7, size: 0x8, addend: 0x0, symName: '__ZN4core3num60_$LT$impl$u20$core..str..traits..FromStr$u20$for$u20$i64$GT$8from_str17h82708287da6bf649E', symObjAddr: 0x15488, symBinAddr: 0xF6E24, symSize: 0x14 }
  - { offsetInCU: 0x12A5A, offset: 0x116A09, size: 0x8, addend: 0x0, symName: '__ZN4core3num61_$LT$impl$u20$core..str..traits..FromStr$u20$for$u20$i128$GT$8from_str17hc17d0a45b2c8b297E', symObjAddr: 0x1549C, symBinAddr: 0xF6E38, symSize: 0x14 }
  - { offsetInCU: 0x12A7C, offset: 0x116A2B, size: 0x8, addend: 0x0, symName: '__ZN4core3num62_$LT$impl$u20$core..str..traits..FromStr$u20$for$u20$usize$GT$8from_str17h99246f7ffbc2d43cE', symObjAddr: 0x154B0, symBinAddr: 0xF6E4C, symSize: 0x124 }
  - { offsetInCU: 0x12B6F, offset: 0x116B1E, size: 0x8, addend: 0x0, symName: '__ZN4core3num59_$LT$impl$u20$core..str..traits..FromStr$u20$for$u20$u8$GT$8from_str17h83e39f6b605dc828E', symObjAddr: 0x155D4, symBinAddr: 0xF6F70, symSize: 0x13C }
  - { offsetInCU: 0x12C63, offset: 0x116C12, size: 0x8, addend: 0x0, symName: '__ZN4core3num60_$LT$impl$u20$core..str..traits..FromStr$u20$for$u20$u16$GT$8from_str17hdbc94a3e1ecb9505E', symObjAddr: 0x15710, symBinAddr: 0xF70AC, symSize: 0x124 }
  - { offsetInCU: 0x12D47, offset: 0x116CF6, size: 0x8, addend: 0x0, symName: '__ZN4core3num60_$LT$impl$u20$core..str..traits..FromStr$u20$for$u20$u32$GT$8from_str17he6a8de76659e2d04E', symObjAddr: 0x15834, symBinAddr: 0xF71D0, symSize: 0x120 }
  - { offsetInCU: 0x12E33, offset: 0x116DE2, size: 0x8, addend: 0x0, symName: '__ZN4core3num60_$LT$impl$u20$core..str..traits..FromStr$u20$for$u20$u64$GT$8from_str17hede27bda842cd457E', symObjAddr: 0x15954, symBinAddr: 0xF72F0, symSize: 0x14 }
  - { offsetInCU: 0x12E55, offset: 0x116E04, size: 0x8, addend: 0x0, symName: '__ZN4core3num61_$LT$impl$u20$core..str..traits..FromStr$u20$for$u20$u128$GT$8from_str17h93fa982486b042ddE', symObjAddr: 0x15968, symBinAddr: 0xF7304, symSize: 0x14 }
  - { offsetInCU: 0x12EE0, offset: 0x116E8F, size: 0x8, addend: 0x0, symName: '__ZN4core3num20_$LT$impl$u20$i8$GT$14from_str_radix17h408628eb5162b348E', symObjAddr: 0x1597C, symBinAddr: 0xF7318, symSize: 0x358 }
  - { offsetInCU: 0x131D0, offset: 0x11717F, size: 0x8, addend: 0x0, symName: '__ZN4core3num21_$LT$impl$u20$i16$GT$14from_str_radix17h1032cb51e74d1e47E', symObjAddr: 0x15F68, symBinAddr: 0xF7904, symSize: 0x3BC }
  - { offsetInCU: 0x1344D, offset: 0x1173FC, size: 0x8, addend: 0x0, symName: '__ZN4core3num21_$LT$impl$u20$i32$GT$14from_str_radix17h058df4fc03246a1bE', symObjAddr: 0x165AC, symBinAddr: 0xF7F48, symSize: 0x418 }
  - { offsetInCU: 0x136FC, offset: 0x1176AB, size: 0x8, addend: 0x0, symName: '__ZN4core3num21_$LT$impl$u20$i64$GT$14from_str_radix17h56d74e4f130e8cf3E', symObjAddr: 0x16C54, symBinAddr: 0xF85F0, symSize: 0x3DC }
  - { offsetInCU: 0x139B3, offset: 0x117962, size: 0x8, addend: 0x0, symName: '__ZN4core3num22_$LT$impl$u20$i128$GT$14from_str_radix17ha8e757191428df2fE', symObjAddr: 0x172B0, symBinAddr: 0xF8C4C, symSize: 0x428 }
  - { offsetInCU: 0x1439E, offset: 0x11834D, size: 0x8, addend: 0x0, symName: __ZN4core5slice5index26slice_start_index_len_fail17h747fa073fdaf16e6E, symObjAddr: 0xE460, symBinAddr: 0x1052B4, symSize: 0xC }
  - { offsetInCU: 0x143B8, offset: 0x118367, size: 0x8, addend: 0x0, symName: __ZN4core5slice5index29slice_start_index_len_fail_rt17h86c0e96e589a0608E, symObjAddr: 0xE46C, symBinAddr: 0xEFF1C, symSize: 0x50 }
  - { offsetInCU: 0x143E8, offset: 0x118397, size: 0x8, addend: 0x0, symName: __ZN4core5slice5index24slice_end_index_len_fail17hd82a218dcfad9ba7E, symObjAddr: 0xE4BC, symBinAddr: 0x1052C0, symSize: 0xC }
  - { offsetInCU: 0x14402, offset: 0x1183B1, size: 0x8, addend: 0x0, symName: __ZN4core5slice5index27slice_end_index_len_fail_rt17h6e63beb4fe30072dE, symObjAddr: 0xE4C8, symBinAddr: 0xEFF6C, symSize: 0x50 }
  - { offsetInCU: 0x14432, offset: 0x1183E1, size: 0x8, addend: 0x0, symName: __ZN4core5slice5index22slice_index_order_fail17he960a8ddbadab423E, symObjAddr: 0xE518, symBinAddr: 0x1052CC, symSize: 0xC }
  - { offsetInCU: 0x1444C, offset: 0x1183FB, size: 0x8, addend: 0x0, symName: __ZN4core5slice5index25slice_index_order_fail_rt17hc50709a8af4c6c30E, symObjAddr: 0xE524, symBinAddr: 0xEFFBC, symSize: 0x50 }
  - { offsetInCU: 0x1447C, offset: 0x11842B, size: 0x8, addend: 0x0, symName: __ZN4core5slice5index31slice_start_index_overflow_fail17h867e4916b217ca9fE, symObjAddr: 0xE574, symBinAddr: 0x1052D8, symSize: 0x34 }
  - { offsetInCU: 0x144AC, offset: 0x11845B, size: 0x8, addend: 0x0, symName: __ZN4core5slice5index29slice_end_index_overflow_fail17h0597af709181efb7E, symObjAddr: 0xE5A8, symBinAddr: 0x10530C, symSize: 0x34 }
  - { offsetInCU: 0x144DC, offset: 0x11848B, size: 0x8, addend: 0x0, symName: __ZN4core5slice5index10into_range17hf0961f411cae2937E, symObjAddr: 0xE5DC, symBinAddr: 0xF000C, symSize: 0x5C }
  - { offsetInCU: 0x14575, offset: 0x118524, size: 0x8, addend: 0x0, symName: __ZN4core5slice5index16into_slice_range17hfed23313783699d7E, symObjAddr: 0xE638, symBinAddr: 0xF0068, symSize: 0x68 }
  - { offsetInCU: 0x14AC2, offset: 0x118A71, size: 0x8, addend: 0x0, symName: '__ZN4core5slice29_$LT$impl$u20$$u5b$T$u5d$$GT$15copy_from_slice17len_mismatch_fail17h724194b0601924bbE', symObjAddr: 0xE6A0, symBinAddr: 0x105340, symSize: 0x54 }
  - { offsetInCU: 0x14AFA, offset: 0x118AA9, size: 0x8, addend: 0x0, symName: '__ZN4core5slice29_$LT$impl$u20$$u5b$T$u5d$$GT$16align_to_offsets3gcd17h6d83c2cae6761962E', symObjAddr: 0xE6F4, symBinAddr: 0xF00D0, symSize: 0x34 }
  - { offsetInCU: 0x14D16, offset: 0x118CC5, size: 0x8, addend: 0x0, symName: '__ZN105_$LT$core..slice..ascii..EscapeAscii$u20$as$u20$core..iter..traits..double_ended..DoubleEndedIterator$GT$9next_back17h68c2bbff297daa9eE', symObjAddr: 0xDE40, symBinAddr: 0xEF8FC, symSize: 0x228 }
  - { offsetInCU: 0x15040, offset: 0x118FEF, size: 0x8, addend: 0x0, symName: '__ZN70_$LT$core..slice..ascii..EscapeAscii$u20$as$u20$core..fmt..Display$GT$3fmt17h9d800e019afb0a94E', symObjAddr: 0xE068, symBinAddr: 0xEFB24, symSize: 0x38C }
  - { offsetInCU: 0x15508, offset: 0x1194B7, size: 0x8, addend: 0x0, symName: '__ZN68_$LT$core..slice..ascii..EscapeAscii$u20$as$u20$core..fmt..Debug$GT$3fmt17h36237759c26d992eE', symObjAddr: 0xE3F4, symBinAddr: 0xEFEB0, symSize: 0x6C }
  - { offsetInCU: 0x15606, offset: 0x1195B5, size: 0x8, addend: 0x0, symName: __ZN4core5slice6memchr14memchr_aligned17h10c6b7981a4b1968E, symObjAddr: 0xDC2C, symBinAddr: 0xEF6E8, symSize: 0xF4 }
  - { offsetInCU: 0x156BE, offset: 0x11966D, size: 0x8, addend: 0x0, symName: __ZN4core5slice6memchr7memrchr17h73d58cebcd2e6b52E, symObjAddr: 0xDD20, symBinAddr: 0xEF7DC, symSize: 0x120 }
  - { offsetInCU: 0x15C84, offset: 0x119C33, size: 0x8, addend: 0x0, symName: __ZN4core10intrinsics3mir11StorageDead19panic_cold_explicit17h3dfd60c5dfbb01dbE, symObjAddr: 0x17A60, symBinAddr: 0x1053D4, symSize: 0x0 }
  - { offsetInCU: 0x16273, offset: 0x11A222, size: 0x8, addend: 0x0, symName: __ZN4core6option13unwrap_failed17habd4e6eab49912edE, symObjAddr: 0x7F50, symBinAddr: 0x104E50, symSize: 0x1C }
  - { offsetInCU: 0x1628E, offset: 0x11A23D, size: 0x8, addend: 0x0, symName: __ZN4core6option13expect_failed17hd29447808ce7592dE, symObjAddr: 0x7F6C, symBinAddr: 0x104E6C, symSize: 0x1C }
  - { offsetInCU: 0x167C2, offset: 0x11A771, size: 0x8, addend: 0x0, symName: '__ZN64_$LT$core..ops..range..RangeFull$u20$as$u20$core..fmt..Debug$GT$3fmt17h940446d9212738b2E', symObjAddr: 0x46D4, symBinAddr: 0xE667C, symSize: 0x24 }
  - { offsetInCU: 0x167FA, offset: 0x11A7A9, size: 0x8, addend: 0x0, symName: '__ZN71_$LT$core..ops..range..Range$LT$Idx$GT$$u20$as$u20$core..fmt..Debug$GT$3fmt17h6634c00e78e60450E', symObjAddr: 0x46F8, symBinAddr: 0xE66A0, symSize: 0x5C }
  - { offsetInCU: 0x16B8D, offset: 0x11AB3C, size: 0x8, addend: 0x0, symName: '__ZN76_$LT$core..mem..transmutability..Assume$u20$as$u20$core..ops..arith..Add$GT$3add17h75972ca18056dba8E', symObjAddr: 0x4514, symBinAddr: 0xE64BC, symSize: 0x48 }
  - { offsetInCU: 0x16BC4, offset: 0x11AB73, size: 0x8, addend: 0x0, symName: '__ZN76_$LT$core..mem..transmutability..Assume$u20$as$u20$core..ops..arith..Sub$GT$3sub17h0d91cc65f5bc7fedE', symObjAddr: 0x455C, symBinAddr: 0xE6504, symSize: 0x48 }
  - { offsetInCU: 0x170F7, offset: 0x11B0A6, size: 0x8, addend: 0x0, symName: __ZN4core6result13unwrap_failed17he9a50a3aac6e890bE, symObjAddr: 0x85E8, symBinAddr: 0x105258, symSize: 0x5C }
  - { offsetInCU: 0x17166, offset: 0x11B115, size: 0x8, addend: 0x0, symName: '__ZN57_$LT$core..error..Request$u20$as$u20$core..fmt..Debug$GT$3fmt17hcdb7b4d3f810aa4cE', symObjAddr: 0x461C, symBinAddr: 0xE65C4, symSize: 0x6C }
  - { offsetInCU: 0x17215, offset: 0x11B1C4, size: 0x8, addend: 0x0, symName: '__ZN78_$LT$core..error..Source$u20$as$u20$core..iter..traits..iterator..Iterator$GT$4next17h83dd290ba1c24f06E', symObjAddr: 0x4688, symBinAddr: 0xE6630, symSize: 0x4C }
  - { offsetInCU: 0x1726C, offset: 0x11B21B, size: 0x8, addend: 0x0, symName: '__ZN36_$LT$T$u20$as$u20$core..any..Any$GT$7type_id17hd1f8bfb94a4bad98E', symObjAddr: 0x4754, symBinAddr: 0xE66FC, symSize: 0x30 }
  - { offsetInCU: 0x1728D, offset: 0x11B23C, size: 0x8, addend: 0x0, symName: '__ZN105_$LT$dyn$u20$core..any..Any$u2b$core..marker..Send$u2b$core..marker..Sync$u20$as$u20$core..fmt..Debug$GT$3fmt17h7f1e9abd0077208aE', symObjAddr: 0x4784, symBinAddr: 0xE672C, symSize: 0x0 }
  - { offsetInCU: 0x1737C, offset: 0x11B32B, size: 0x8, addend: 0x0, symName: '__ZN73_$LT$core..ascii..ascii_char..AsciiChar$u20$as$u20$core..fmt..Display$GT$3fmt17h87fac9d0ef63a946E', symObjAddr: 0x47F0, symBinAddr: 0xE6798, symSize: 0x20 }
  - { offsetInCU: 0x173B5, offset: 0x11B364, size: 0x8, addend: 0x0, symName: '__ZN71_$LT$core..ascii..ascii_char..AsciiChar$u20$as$u20$core..fmt..Debug$GT$3fmt17h1d43755022948cacE', symObjAddr: 0x4810, symBinAddr: 0xE67B8, symSize: 0x244 }
  - { offsetInCU: 0x17495, offset: 0x11B444, size: 0x8, addend: 0x0, symName: __ZN4core5ascii14escape_default17h7e408b60c614e441E, symObjAddr: 0x4A54, symBinAddr: 0xE69FC, symSize: 0x130 }
  - { offsetInCU: 0x17507, offset: 0x11B4B6, size: 0x8, addend: 0x0, symName: '__ZN65_$LT$core..ascii..EscapeDefault$u20$as$u20$core..fmt..Display$GT$3fmt17hd991e0d3b999dfbaE', symObjAddr: 0x4B84, symBinAddr: 0xE6B2C, symSize: 0x64 }
  - { offsetInCU: 0x175A2, offset: 0x11B551, size: 0x8, addend: 0x0, symName: '__ZN63_$LT$core..ascii..EscapeDefault$u20$as$u20$core..fmt..Debug$GT$3fmt17h1323cb63798be93cE', symObjAddr: 0x4BE8, symBinAddr: 0xE6B90, symSize: 0x6C }
  - { offsetInCU: 0x177CC, offset: 0x11B77B, size: 0x8, addend: 0x0, symName: '__ZN60_$LT$core..cell..BorrowError$u20$as$u20$core..fmt..Debug$GT$3fmt17hb2e578392d5301c0E', symObjAddr: 0x4C54, symBinAddr: 0xE6BFC, symSize: 0x24 }
  - { offsetInCU: 0x17832, offset: 0x11B7E1, size: 0x8, addend: 0x0, symName: '__ZN62_$LT$core..cell..BorrowError$u20$as$u20$core..fmt..Display$GT$3fmt17h1d59cd2d31a87443E', symObjAddr: 0x4C78, symBinAddr: 0xE6C20, symSize: 0x20 }
  - { offsetInCU: 0x1786B, offset: 0x11B81A, size: 0x8, addend: 0x0, symName: '__ZN63_$LT$core..cell..BorrowMutError$u20$as$u20$core..fmt..Debug$GT$3fmt17h66a2880cbac6995bE', symObjAddr: 0x4C98, symBinAddr: 0xE6C40, symSize: 0x24 }
  - { offsetInCU: 0x178D1, offset: 0x11B880, size: 0x8, addend: 0x0, symName: '__ZN65_$LT$core..cell..BorrowMutError$u20$as$u20$core..fmt..Display$GT$3fmt17h43f977ba81473278E', symObjAddr: 0x4CBC, symBinAddr: 0xE6C64, symSize: 0x20 }
  - { offsetInCU: 0x17904, offset: 0x11B8B3, size: 0x8, addend: 0x0, symName: __ZN4core4cell22panic_already_borrowed17h84f86d30dbc01a88E, symObjAddr: 0x4CDC, symBinAddr: 0x104DC8, symSize: 0x44 }
  - { offsetInCU: 0x17935, offset: 0x11B8E4, size: 0x8, addend: 0x0, symName: __ZN4core4cell30panic_already_mutably_borrowed17he69f321b85000cc7E, symObjAddr: 0x4D20, symBinAddr: 0x104E0C, symSize: 0x44 }
  - { offsetInCU: 0x1798D, offset: 0x11B93C, size: 0x8, addend: 0x0, symName: '__ZN74_$LT$core..char..convert..ParseCharError$u20$as$u20$core..fmt..Display$GT$3fmt17hde9ed0876bd46721E', symObjAddr: 0x4D64, symBinAddr: 0xE6C84, symSize: 0x44 }
  - { offsetInCU: 0x179EE, offset: 0x11B99D, size: 0x8, addend: 0x0, symName: '__ZN76_$LT$core..char..convert..CharTryFromError$u20$as$u20$core..fmt..Display$GT$3fmt17h85647cccb730dd91E', symObjAddr: 0x4DA8, symBinAddr: 0xE6CC8, symSize: 0x20 }
  - { offsetInCU: 0x17A62, offset: 0x11BA11, size: 0x8, addend: 0x0, symName: '__ZN75_$LT$core..char..decode..DecodeUtf16Error$u20$as$u20$core..fmt..Display$GT$3fmt17h79758adfc7f12951E', symObjAddr: 0x4DC8, symBinAddr: 0xE6CE8, symSize: 0x4C }
  - { offsetInCU: 0x17AB7, offset: 0x11BA66, size: 0x8, addend: 0x0, symName: '__ZN4core4char7methods22_$LT$impl$u20$char$GT$8to_digit17h352723c7d5aa3b2eE', symObjAddr: 0x4E14, symBinAddr: 0xE6D34, symSize: 0x78 }
  - { offsetInCU: 0x17ACF, offset: 0x11BA7E, size: 0x8, addend: 0x0, symName: '__ZN4core4char7methods22_$LT$impl$u20$char$GT$8to_digit17h352723c7d5aa3b2eE', symObjAddr: 0x4E14, symBinAddr: 0xE6D34, symSize: 0x78 }
  - { offsetInCU: 0x17B3F, offset: 0x11BAEE, size: 0x8, addend: 0x0, symName: '__ZN4core4char7methods22_$LT$impl$u20$char$GT$16escape_debug_ext17h9faec2ca1387925bE', symObjAddr: 0x4E8C, symBinAddr: 0xE6DAC, symSize: 0x284 }
  - { offsetInCU: 0x17ED0, offset: 0x11BE7F, size: 0x8, addend: 0x0, symName: __ZN4core4char13EscapeUnicode3new17h0050ae0459aa4b89E, symObjAddr: 0x5110, symBinAddr: 0xE7030, symSize: 0xD4 }
  - { offsetInCU: 0x17FD4, offset: 0x11BF83, size: 0x8, addend: 0x0, symName: __ZN4core4char11EscapeDebug9backslash17hf33df69639f70996E, symObjAddr: 0x5294, symBinAddr: 0xE71B4, symSize: 0x28 }
  - { offsetInCU: 0x17FE8, offset: 0x11BF97, size: 0x8, addend: 0x0, symName: __ZN4core4char11EscapeDebug5clear17h0362bab2890e5a96E, symObjAddr: 0x52BC, symBinAddr: 0xE71DC, symSize: 0x18 }
  - { offsetInCU: 0x18011, offset: 0x11BFC0, size: 0x8, addend: 0x0, symName: __ZN4core4char13EscapeDefault9printable17hff3d82fbd6851c4eE, symObjAddr: 0x51E4, symBinAddr: 0xE7104, symSize: 0x24 }
  - { offsetInCU: 0x18041, offset: 0x11BFF0, size: 0x8, addend: 0x0, symName: __ZN4core4char13EscapeDefault9backslash17h38bb498e5f97685eE, symObjAddr: 0x5208, symBinAddr: 0xE7128, symSize: 0x28 }
  - { offsetInCU: 0x18069, offset: 0x11C018, size: 0x8, addend: 0x0, symName: '__ZN64_$LT$core..char..EscapeDefault$u20$as$u20$core..fmt..Display$GT$3fmt17h0c716596bbb8c102E', symObjAddr: 0x5230, symBinAddr: 0xE7150, symSize: 0x0 }
  - { offsetInCU: 0x18107, offset: 0x11C0B6, size: 0x8, addend: 0x0, symName: '__ZN62_$LT$core..char..EscapeDebug$u20$as$u20$core..fmt..Display$GT$3fmt17h3cee71700a0940e7E', symObjAddr: 0x52D4, symBinAddr: 0xE71F4, symSize: 0x88 }
  - { offsetInCU: 0x181BB, offset: 0x11C16A, size: 0x8, addend: 0x0, symName: '__ZN86_$LT$core..char..CaseMappingIter$u20$as$u20$core..iter..traits..iterator..Iterator$GT$4next17h3ce33b9cc421dda3E', symObjAddr: 0x535C, symBinAddr: 0xE727C, symSize: 0x34 }
  - { offsetInCU: 0x182C3, offset: 0x11C272, size: 0x8, addend: 0x0, symName: '__ZN86_$LT$core..char..CaseMappingIter$u20$as$u20$core..iter..traits..iterator..Iterator$GT$5count17h441d7d4c4901ba87E', symObjAddr: 0x5390, symBinAddr: 0xE72B0, symSize: 0x18 }
  - { offsetInCU: 0x1831C, offset: 0x11C2CB, size: 0x8, addend: 0x0, symName: '__ZN86_$LT$core..char..CaseMappingIter$u20$as$u20$core..iter..traits..iterator..Iterator$GT$4last17h9cd719ff8e37dc52E', symObjAddr: 0x53A8, symBinAddr: 0xE72C8, symSize: 0x48 }
  - { offsetInCU: 0x1843E, offset: 0x11C3ED, size: 0x8, addend: 0x0, symName: '__ZN86_$LT$core..char..CaseMappingIter$u20$as$u20$core..iter..traits..iterator..Iterator$GT$10advance_by17h7c7197b482a11dbcE', symObjAddr: 0x53F0, symBinAddr: 0xE7310, symSize: 0x2C }
  - { offsetInCU: 0x18501, offset: 0x11C4B0, size: 0x8, addend: 0x0, symName: '__ZN101_$LT$core..char..CaseMappingIter$u20$as$u20$core..iter..traits..double_ended..DoubleEndedIterator$GT$9next_back17hf224153c1236a034E', symObjAddr: 0x541C, symBinAddr: 0xE733C, symSize: 0x34 }
  - { offsetInCU: 0x1860C, offset: 0x11C5BB, size: 0x8, addend: 0x0, symName: '__ZN101_$LT$core..char..CaseMappingIter$u20$as$u20$core..iter..traits..double_ended..DoubleEndedIterator$GT$15advance_back_by17ha619ac0b66ccb37eE', symObjAddr: 0x5450, symBinAddr: 0xE7370, symSize: 0x30 }
  - { offsetInCU: 0x186C9, offset: 0x11C678, size: 0x8, addend: 0x0, symName: '__ZN67_$LT$core..char..TryFromCharError$u20$as$u20$core..fmt..Display$GT$3fmt17h8909e7c229f66871E', symObjAddr: 0x5480, symBinAddr: 0xE73A0, symSize: 0x20 }
  - { offsetInCU: 0x1873A, offset: 0x11C6E9, size: 0x8, addend: 0x0, symName: '__ZN82_$LT$core..char..ToLowercase$u20$as$u20$core..iter..traits..iterator..Iterator$GT$4next17h72ec07ecd90dfd2aE', symObjAddr: 0x17A6C, symBinAddr: 0xF93FC, symSize: 0x0 }
  - { offsetInCU: 0x18860, offset: 0x11C80F, size: 0x8, addend: 0x0, symName: '__ZN82_$LT$core..char..ToLowercase$u20$as$u20$core..iter..traits..iterator..Iterator$GT$5count17h1bf6b98fd428bb29E', symObjAddr: 0x17AA0, symBinAddr: 0xF9430, symSize: 0x0 }
  - { offsetInCU: 0x188D7, offset: 0x11C886, size: 0x8, addend: 0x0, symName: '__ZN82_$LT$core..char..ToLowercase$u20$as$u20$core..iter..traits..iterator..Iterator$GT$4last17hd8461335876ff957E', symObjAddr: 0x17AB8, symBinAddr: 0xF9448, symSize: 0x0 }
  - { offsetInCU: 0x18A17, offset: 0x11C9C6, size: 0x8, addend: 0x0, symName: '__ZN82_$LT$core..char..ToLowercase$u20$as$u20$core..iter..traits..iterator..Iterator$GT$10advance_by17hd7482de5ccfae3a3E', symObjAddr: 0x17B00, symBinAddr: 0xF9490, symSize: 0x0 }
  - { offsetInCU: 0x18AC0, offset: 0x11CA6F, size: 0x8, addend: 0x0, symName: '__ZN97_$LT$core..char..ToLowercase$u20$as$u20$core..iter..traits..double_ended..DoubleEndedIterator$GT$9next_back17hdf6e22748e1a0b5cE', symObjAddr: 0x17B2C, symBinAddr: 0xF94BC, symSize: 0x0 }
  - { offsetInCU: 0x18BE9, offset: 0x11CB98, size: 0x8, addend: 0x0, symName: '__ZN97_$LT$core..char..ToLowercase$u20$as$u20$core..iter..traits..double_ended..DoubleEndedIterator$GT$15advance_back_by17hfada8e7af17638b7E', symObjAddr: 0x17B60, symBinAddr: 0xF94F0, symSize: 0x0 }
  - { offsetInCU: 0x18CBD, offset: 0x11CC6C, size: 0x8, addend: 0x0, symName: '__ZN62_$LT$core..char..ToLowercase$u20$as$u20$core..fmt..Display$GT$3fmt17h143c28d182ac3886E', symObjAddr: 0x17B90, symBinAddr: 0xF9520, symSize: 0x0 }
  - { offsetInCU: 0x18EEB, offset: 0x11CE9A, size: 0x8, addend: 0x0, symName: __ZN4core7unicode12unicode_data15grapheme_extend11lookup_slow17hef7d74a78b72c11eE, symObjAddr: 0x1D69C, symBinAddr: 0xFEC84, symSize: 0x128 }
  - { offsetInCU: 0x190D3, offset: 0x11D082, size: 0x8, addend: 0x0, symName: __ZN4core7unicode12unicode_data10alphabetic6lookup17h3e2f6281b446f345E, symObjAddr: 0x1D2E4, symBinAddr: 0xFE8CC, symSize: 0x128 }
  - { offsetInCU: 0x19230, offset: 0x11D1DF, size: 0x8, addend: 0x0, symName: __ZN4core7unicode12unicode_data14case_ignorable6lookup17h081eda55dde7f71fE, symObjAddr: 0x1D40C, symBinAddr: 0xFE9F4, symSize: 0x128 }
  - { offsetInCU: 0x1938D, offset: 0x11D33C, size: 0x8, addend: 0x0, symName: __ZN4core7unicode12unicode_data5cased6lookup17h4debb3a69b091643E, symObjAddr: 0x1D534, symBinAddr: 0xFEB1C, symSize: 0x128 }
  - { offsetInCU: 0x194D0, offset: 0x11D47F, size: 0x8, addend: 0x0, symName: __ZN4core7unicode12unicode_data2cc6lookup17h5d5c1e8f04b6eb2aE, symObjAddr: 0x1D65C, symBinAddr: 0xFEC44, symSize: 0x40 }
  - { offsetInCU: 0x1956A, offset: 0x11D519, size: 0x8, addend: 0x0, symName: __ZN4core7unicode12unicode_data9lowercase6lookup17hb763256646d82c36E, symObjAddr: 0x1D7C4, symBinAddr: 0xFEDAC, symSize: 0x104 }
  - { offsetInCU: 0x195D8, offset: 0x11D587, size: 0x8, addend: 0x0, symName: __ZN4core7unicode12unicode_data1n6lookup17haba46ce1eb9b7f0cE, symObjAddr: 0x1D8C8, symBinAddr: 0xFEEB0, symSize: 0x128 }
  - { offsetInCU: 0x1971D, offset: 0x11D6CC, size: 0x8, addend: 0x0, symName: __ZN4core7unicode12unicode_data9uppercase6lookup17h616996ddf3b7ba5dE, symObjAddr: 0x1D9F0, symBinAddr: 0xFEFD8, symSize: 0x104 }
  - { offsetInCU: 0x19779, offset: 0x11D728, size: 0x8, addend: 0x0, symName: __ZN4core7unicode12unicode_data11conversions8to_lower17h7fbe9f77776a6f29E, symObjAddr: 0x1DAF4, symBinAddr: 0xFF0DC, symSize: 0xB4 }
  - { offsetInCU: 0x198BC, offset: 0x11D86B, size: 0x8, addend: 0x0, symName: __ZN4core7unicode12unicode_data11conversions8to_upper17hdd59185636eb7133E, symObjAddr: 0x1DBA8, symBinAddr: 0xFF190, symSize: 0xCC }
  - { offsetInCU: 0x19A5B, offset: 0x11DA0A, size: 0x8, addend: 0x0, symName: __ZN4core7unicode9printable12is_printable17h503db5a8e6e1310dE, symObjAddr: 0x115A0, symBinAddr: 0xF2F3C, symSize: 0x2D8 }
  - { offsetInCU: 0x19EC7, offset: 0x11DE76, size: 0x8, addend: 0x0, symName: '__ZN79_$LT$core..ffi..c_str..FromBytesUntilNulError$u20$as$u20$core..fmt..Display$GT$3fmt17hddb6fdccb2e91c81E', symObjAddr: 0x54A0, symBinAddr: 0xE73C0, symSize: 0x24 }
  - { offsetInCU: 0x19EFF, offset: 0x11DEAE, size: 0x8, addend: 0x0, symName: '__ZN59_$LT$core..ffi..c_str..CStr$u20$as$u20$core..fmt..Debug$GT$3fmt17hf33ee7b32dea4a86E', symObjAddr: 0x54C4, symBinAddr: 0xE73E4, symSize: 0x6C }
  - { offsetInCU: 0x19FB9, offset: 0x11DF68, size: 0x8, addend: 0x0, symName: '__ZN78_$LT$core..ffi..c_str..FromBytesWithNulError$u20$as$u20$core..fmt..Display$GT$3fmt17h64e759ace76b270dE', symObjAddr: 0x5530, symBinAddr: 0xE7450, symSize: 0xB4 }
  - { offsetInCU: 0x19FD7, offset: 0x11DF86, size: 0x8, addend: 0x0, symName: '__ZN78_$LT$core..ffi..c_str..FromBytesWithNulError$u20$as$u20$core..fmt..Display$GT$3fmt17h64e759ace76b270dE', symObjAddr: 0x5530, symBinAddr: 0xE7450, symSize: 0xB4 }
  - { offsetInCU: 0x1A053, offset: 0x11E002, size: 0x8, addend: 0x0, symName: __ZN4core3ffi5c_str4CStr20from_bytes_until_nul17h1061619028454277E, symObjAddr: 0x55E4, symBinAddr: 0xE7504, symSize: 0xF0 }
  - { offsetInCU: 0x1A132, offset: 0x11E0E1, size: 0x8, addend: 0x0, symName: __ZN4core3ffi5c_str4CStr19from_bytes_with_nul17h944981d9f24c5d19E, symObjAddr: 0x56D4, symBinAddr: 0xE75F4, symSize: 0xF0 }
  - { offsetInCU: 0x1A21F, offset: 0x11E1CE, size: 0x8, addend: 0x0, symName: __ZN4core3ffi5c_str4CStr6to_str17h0e4956a53859a31fE, symObjAddr: 0x5874, symBinAddr: 0xE7794, symSize: 0x14 }
  - { offsetInCU: 0x1A25E, offset: 0x11E20D, size: 0x8, addend: 0x0, symName: __ZN4core3ffi5c_str4CStr29from_bytes_with_nul_unchecked10const_impl17hc00ee06f6f1abe3bE, symObjAddr: 0x57C4, symBinAddr: 0xE76E4, symSize: 0xB0 }
  - { offsetInCU: 0x1A2C3, offset: 0x11E272, size: 0x8, addend: 0x0, symName: '__ZN54_$LT$core..ffi..c_void$u20$as$u20$core..fmt..Debug$GT$3fmt17hcf994c7307b4b76eE', symObjAddr: 0x5888, symBinAddr: 0xE77A8, symSize: 0x24 }
  - { offsetInCU: 0x1A327, offset: 0x11E2D6, size: 0x8, addend: 0x0, symName: '__ZN58_$LT$core..ffi..VaListImpl$u20$as$u20$core..fmt..Debug$GT$3fmt17h6ba5829a6a36cdffE', symObjAddr: 0x58AC, symBinAddr: 0xE77CC, symSize: 0x4C }
  - { offsetInCU: 0x1A397, offset: 0x11E346, size: 0x8, addend: 0x0, symName: '__ZN72_$LT$core..io..borrowed_buf..BorrowedBuf$u20$as$u20$core..fmt..Debug$GT$3fmt17hf30adf773f54a3a6E', symObjAddr: 0x58F8, symBinAddr: 0xE7818, symSize: 0x110 }
  - { offsetInCU: 0x1A4AC, offset: 0x11E45B, size: 0x8, addend: 0x0, symName: '__ZN86_$LT$core..net..display_buffer..DisplayBuffer$LT$_$GT$$u20$as$u20$core..fmt..Write$GT$9write_str17h126a74e055cec2a4E', symObjAddr: 0x5A08, symBinAddr: 0xE7928, symSize: 0x5C }
  - { offsetInCU: 0x1A520, offset: 0x11E4CF, size: 0x8, addend: 0x0, symName: '__ZN86_$LT$core..net..display_buffer..DisplayBuffer$LT$_$GT$$u20$as$u20$core..fmt..Write$GT$9write_str17h9f8acb5e87daa6b9E', symObjAddr: 0x5A64, symBinAddr: 0xE7984, symSize: 0x5C }
  - { offsetInCU: 0x1A594, offset: 0x11E543, size: 0x8, addend: 0x0, symName: '__ZN86_$LT$core..net..display_buffer..DisplayBuffer$LT$_$GT$$u20$as$u20$core..fmt..Write$GT$9write_str17hb15d300b72964d52E', symObjAddr: 0x5AC0, symBinAddr: 0xE79E0, symSize: 0x5C }
  - { offsetInCU: 0x1A608, offset: 0x11E5B7, size: 0x8, addend: 0x0, symName: '__ZN86_$LT$core..net..display_buffer..DisplayBuffer$LT$_$GT$$u20$as$u20$core..fmt..Write$GT$9write_str17he08557fe27bceeb2E', symObjAddr: 0x5B1C, symBinAddr: 0xE7A3C, symSize: 0x5C }
  - { offsetInCU: 0x1A72D, offset: 0x11E6DC, size: 0x8, addend: 0x0, symName: '__ZN65_$LT$core..net..ip_addr..IpAddr$u20$as$u20$core..fmt..Display$GT$3fmt17h3b279cf3f2735ad4E', symObjAddr: 0x5B78, symBinAddr: 0xE7A98, symSize: 0x20 }
  - { offsetInCU: 0x1A756, offset: 0x11E705, size: 0x8, addend: 0x0, symName: '__ZN63_$LT$core..net..ip_addr..IpAddr$u20$as$u20$core..fmt..Debug$GT$3fmt17h011e3b03c4aa9560E', symObjAddr: 0x5B98, symBinAddr: 0xE7AB8, symSize: 0x20 }
  - { offsetInCU: 0x1A79D, offset: 0x11E74C, size: 0x8, addend: 0x0, symName: '__ZN4core3net6parser46_$LT$impl$u20$core..net..ip_addr..Ipv4Addr$GT$11parse_ascii17h45b5412a9c73821cE', symObjAddr: 0x7640, symBinAddr: 0xE9560, symSize: 0x80 }
  - { offsetInCU: 0x1A801, offset: 0x11E7B0, size: 0x8, addend: 0x0, symName: '__ZN67_$LT$core..net..ip_addr..Ipv4Addr$u20$as$u20$core..fmt..Display$GT$3fmt17h172e593568d00feeE', symObjAddr: 0x5BB8, symBinAddr: 0xE7AD8, symSize: 0x14C }
  - { offsetInCU: 0x1A94F, offset: 0x11E8FE, size: 0x8, addend: 0x0, symName: '__ZN65_$LT$core..net..ip_addr..Ipv4Addr$u20$as$u20$core..fmt..Debug$GT$3fmt17hc0ff72478a20a300E', symObjAddr: 0x5D04, symBinAddr: 0xE7C24, symSize: 0x10 }
  - { offsetInCU: 0x1A9A9, offset: 0x11E958, size: 0x8, addend: 0x0, symName: '__ZN4core3net6parser46_$LT$impl$u20$core..net..ip_addr..Ipv6Addr$GT$11parse_ascii17h3540ca72bb4b29a9E', symObjAddr: 0x7740, symBinAddr: 0xE9660, symSize: 0x74 }
  - { offsetInCU: 0x1AA36, offset: 0x11E9E5, size: 0x8, addend: 0x0, symName: '__ZN67_$LT$core..net..ip_addr..Ipv6Addr$u20$as$u20$core..fmt..Display$GT$3fmt12fmt_subslice17h17437c0c98ec3178E', symObjAddr: 0x6434, symBinAddr: 0xE8354, symSize: 0x10C }
  - { offsetInCU: 0x1AB2E, offset: 0x11EADD, size: 0x8, addend: 0x0, symName: '__ZN67_$LT$core..net..ip_addr..Ipv6Addr$u20$as$u20$core..fmt..Display$GT$3fmt17h5057e8672c48f616E', symObjAddr: 0x5D14, symBinAddr: 0xE7C34, symSize: 0x720 }
  - { offsetInCU: 0x1AF03, offset: 0x11EEB2, size: 0x8, addend: 0x0, symName: '__ZN65_$LT$core..net..ip_addr..Ipv6Addr$u20$as$u20$core..fmt..Debug$GT$3fmt17h158ce6f1e9477da0E', symObjAddr: 0x6540, symBinAddr: 0xE8460, symSize: 0x10 }
  - { offsetInCU: 0x1AF3A, offset: 0x11EEE9, size: 0x8, addend: 0x0, symName: '__ZN4core3net6parser44_$LT$impl$u20$core..net..ip_addr..IpAddr$GT$11parse_ascii17h4f91135404184051E', symObjAddr: 0x74D8, symBinAddr: 0xE93F8, symSize: 0xB4 }
  - { offsetInCU: 0x1B012, offset: 0x11EFC1, size: 0x8, addend: 0x0, symName: '__ZN77_$LT$core..net..ip_addr..Ipv4Addr$u20$as$u20$core..ops..bit..BitAndAssign$GT$13bitand_assign17h0262d733523b1228E', symObjAddr: 0x17C80, symBinAddr: 0xF9610, symSize: 0x40 }
  - { offsetInCU: 0x1B052, offset: 0x11F001, size: 0x8, addend: 0x0, symName: '__ZN117_$LT$core..net..ip_addr..Ipv4Addr$u20$as$u20$core..ops..bit..BitAndAssign$LT$$RF$core..net..ip_addr..Ipv4Addr$GT$$GT$13bitand_assign17hff6aa335fac50dd0E', symObjAddr: 0x17CC0, symBinAddr: 0xF9650, symSize: 0x44 }
  - { offsetInCU: 0x1B0A2, offset: 0x11F051, size: 0x8, addend: 0x0, symName: '__ZN76_$LT$core..net..ip_addr..Ipv4Addr$u20$as$u20$core..ops..bit..BitOrAssign$GT$12bitor_assign17hb4dd70b56d18efc3E', symObjAddr: 0x17D04, symBinAddr: 0xF9694, symSize: 0x40 }
  - { offsetInCU: 0x1B0E2, offset: 0x11F091, size: 0x8, addend: 0x0, symName: '__ZN116_$LT$core..net..ip_addr..Ipv4Addr$u20$as$u20$core..ops..bit..BitOrAssign$LT$$RF$core..net..ip_addr..Ipv4Addr$GT$$GT$12bitor_assign17hf2b95e97d90aaa46E', symObjAddr: 0x17D44, symBinAddr: 0xF96D4, symSize: 0x44 }
  - { offsetInCU: 0x1B132, offset: 0x11F0E1, size: 0x8, addend: 0x0, symName: '__ZN77_$LT$core..net..ip_addr..Ipv6Addr$u20$as$u20$core..ops..bit..BitAndAssign$GT$13bitand_assign17hbae17ade35a6166eE', symObjAddr: 0x17D88, symBinAddr: 0xF9718, symSize: 0xA0 }
  - { offsetInCU: 0x1B19E, offset: 0x11F14D, size: 0x8, addend: 0x0, symName: '__ZN117_$LT$core..net..ip_addr..Ipv6Addr$u20$as$u20$core..ops..bit..BitAndAssign$LT$$RF$core..net..ip_addr..Ipv6Addr$GT$$GT$13bitand_assign17h68a42b9ac0f11594E', symObjAddr: 0x17E28, symBinAddr: 0xF97B8, symSize: 0x20 }
  - { offsetInCU: 0x1B21A, offset: 0x11F1C9, size: 0x8, addend: 0x0, symName: '__ZN76_$LT$core..net..ip_addr..Ipv6Addr$u20$as$u20$core..ops..bit..BitOrAssign$GT$12bitor_assign17hdb3d0afb05157617E', symObjAddr: 0x17E48, symBinAddr: 0xF97D8, symSize: 0xA0 }
  - { offsetInCU: 0x1B286, offset: 0x11F235, size: 0x8, addend: 0x0, symName: '__ZN116_$LT$core..net..ip_addr..Ipv6Addr$u20$as$u20$core..ops..bit..BitOrAssign$LT$$RF$core..net..ip_addr..Ipv6Addr$GT$$GT$12bitor_assign17h03528a7508328476E', symObjAddr: 0x17EE8, symBinAddr: 0xF9878, symSize: 0x20 }
  - { offsetInCU: 0x1B34A, offset: 0x11F2F9, size: 0x8, addend: 0x0, symName: __ZN4core3net6parser6Parser11read_number17h9200a32296d99384E, symObjAddr: 0x6550, symBinAddr: 0xE8470, symSize: 0x53C }
  - { offsetInCU: 0x1B5EF, offset: 0x11F59E, size: 0x8, addend: 0x0, symName: __ZN4core3net6parser6Parser14read_ipv4_addr17h3f1eb2759c2d61ebE, symObjAddr: 0x6A8C, symBinAddr: 0xE89AC, symSize: 0x364 }
  - { offsetInCU: 0x1B804, offset: 0x11F7B3, size: 0x8, addend: 0x0, symName: __ZN4core3net6parser6Parser14read_ipv6_addr17hee41380d3210c851E, symObjAddr: 0x6DF0, symBinAddr: 0xE8D10, symSize: 0x13C }
  - { offsetInCU: 0x1BB4D, offset: 0x11FAFC, size: 0x8, addend: 0x0, symName: __ZN4core3net6parser6Parser19read_socket_addr_v417h2205f4e6365599f5E, symObjAddr: 0x7124, symBinAddr: 0xE9044, symSize: 0x14C }
  - { offsetInCU: 0x1BEA1, offset: 0x11FE50, size: 0x8, addend: 0x0, symName: __ZN4core3net6parser6Parser19read_socket_addr_v617hf5decdfc706b2694E, symObjAddr: 0x7270, symBinAddr: 0xE9190, symSize: 0x268 }
  - { offsetInCU: 0x1C7BB, offset: 0x12076A, size: 0x8, addend: 0x0, symName: __ZN4core3net6parser6Parser14read_ipv6_addr11read_groups17hfa76bdebc2202de1E, symObjAddr: 0x6F2C, symBinAddr: 0xE8E4C, symSize: 0x1F8 }
  - { offsetInCU: 0x1CB63, offset: 0x120B12, size: 0x8, addend: 0x0, symName: '__ZN4core3net6parser83_$LT$impl$u20$core..str..traits..FromStr$u20$for$u20$core..net..ip_addr..IpAddr$GT$8from_str17hca1c12f52df4d308E', symObjAddr: 0x758C, symBinAddr: 0xE94AC, symSize: 0xB4 }
  - { offsetInCU: 0x1CC67, offset: 0x120C16, size: 0x8, addend: 0x0, symName: '__ZN4core3net6parser85_$LT$impl$u20$core..str..traits..FromStr$u20$for$u20$core..net..ip_addr..Ipv4Addr$GT$8from_str17h2638422bad455e06E', symObjAddr: 0x76C0, symBinAddr: 0xE95E0, symSize: 0x80 }
  - { offsetInCU: 0x1CCEF, offset: 0x120C9E, size: 0x8, addend: 0x0, symName: '__ZN4core3net6parser85_$LT$impl$u20$core..str..traits..FromStr$u20$for$u20$core..net..ip_addr..Ipv6Addr$GT$8from_str17hef41ed3a7566ceccE', symObjAddr: 0x77B4, symBinAddr: 0xE96D4, symSize: 0x74 }
  - { offsetInCU: 0x1CD94, offset: 0x120D43, size: 0x8, addend: 0x0, symName: '__ZN4core3net6parser93_$LT$impl$u20$core..str..traits..FromStr$u20$for$u20$core..net..socket_addr..SocketAddrV4$GT$8from_str17h5dec55cfd653350dE', symObjAddr: 0x7870, symBinAddr: 0xE9790, symSize: 0x48 }
  - { offsetInCU: 0x1CE2C, offset: 0x120DDB, size: 0x8, addend: 0x0, symName: '__ZN4core3net6parser93_$LT$impl$u20$core..str..traits..FromStr$u20$for$u20$core..net..socket_addr..SocketAddrV6$GT$8from_str17he72f0e667c359b0cE', symObjAddr: 0x7924, symBinAddr: 0xE9844, symSize: 0x6C }
  - { offsetInCU: 0x1CED1, offset: 0x120E80, size: 0x8, addend: 0x0, symName: '__ZN4core3net6parser91_$LT$impl$u20$core..str..traits..FromStr$u20$for$u20$core..net..socket_addr..SocketAddr$GT$8from_str17h09956d9c7d89df4aE', symObjAddr: 0x7A5C, symBinAddr: 0xE997C, symSize: 0xCC }
  - { offsetInCU: 0x1CFD6, offset: 0x120F85, size: 0x8, addend: 0x0, symName: '__ZN72_$LT$core..net..parser..AddrParseError$u20$as$u20$core..fmt..Display$GT$3fmt17h98b3fb92a94aa001E', symObjAddr: 0x7B28, symBinAddr: 0xE9A48, symSize: 0x3C }
  - { offsetInCU: 0x1D03A, offset: 0x120FE9, size: 0x8, addend: 0x0, symName: '__ZN4core3net6parser54_$LT$impl$u20$core..net..socket_addr..SocketAddrV6$GT$11parse_ascii17h7fc8bc39cb8ddbf2E', symObjAddr: 0x78B8, symBinAddr: 0xE97D8, symSize: 0x6C }
  - { offsetInCU: 0x1D0DD, offset: 0x12108C, size: 0x8, addend: 0x0, symName: '__ZN4core3net6parser54_$LT$impl$u20$core..net..socket_addr..SocketAddrV4$GT$11parse_ascii17h3d9ae4affeeb25acE', symObjAddr: 0x7828, symBinAddr: 0xE9748, symSize: 0x48 }
  - { offsetInCU: 0x1D179, offset: 0x121128, size: 0x8, addend: 0x0, symName: '__ZN4core3net6parser52_$LT$impl$u20$core..net..socket_addr..SocketAddr$GT$11parse_ascii17h448668a68eeb988bE', symObjAddr: 0x7990, symBinAddr: 0xE98B0, symSize: 0xCC }
  - { offsetInCU: 0x1D259, offset: 0x121208, size: 0x8, addend: 0x0, symName: '__ZN73_$LT$core..net..socket_addr..SocketAddr$u20$as$u20$core..fmt..Display$GT$3fmt17h8b4dcea1c24321f8E', symObjAddr: 0x7B64, symBinAddr: 0xE9A84, symSize: 0x28 }
  - { offsetInCU: 0x1D282, offset: 0x121231, size: 0x8, addend: 0x0, symName: '__ZN71_$LT$core..net..socket_addr..SocketAddr$u20$as$u20$core..fmt..Debug$GT$3fmt17hb1a6aa23754c7c24E', symObjAddr: 0x7B8C, symBinAddr: 0xE9AAC, symSize: 0x28 }
  - { offsetInCU: 0x1D2BB, offset: 0x12126A, size: 0x8, addend: 0x0, symName: '__ZN75_$LT$core..net..socket_addr..SocketAddrV4$u20$as$u20$core..fmt..Display$GT$3fmt17ha0576edf0cfa394eE', symObjAddr: 0x7BB4, symBinAddr: 0xE9AD4, symSize: 0x148 }
  - { offsetInCU: 0x1D44B, offset: 0x1213FA, size: 0x8, addend: 0x0, symName: '__ZN73_$LT$core..net..socket_addr..SocketAddrV4$u20$as$u20$core..fmt..Debug$GT$3fmt17h898e3a55cb78720aE', symObjAddr: 0x7CFC, symBinAddr: 0xE9C1C, symSize: 0x10 }
  - { offsetInCU: 0x1D46D, offset: 0x12141C, size: 0x8, addend: 0x0, symName: '__ZN75_$LT$core..net..socket_addr..SocketAddrV6$u20$as$u20$core..fmt..Display$GT$3fmt17h7df461a534d4b6f5E', symObjAddr: 0x7D0C, symBinAddr: 0xE9C2C, symSize: 0x234 }
  - { offsetInCU: 0x1D705, offset: 0x1216B4, size: 0x8, addend: 0x0, symName: '__ZN73_$LT$core..net..socket_addr..SocketAddrV6$u20$as$u20$core..fmt..Debug$GT$3fmt17ha3bf48cedfdf84a2E', symObjAddr: 0x7F40, symBinAddr: 0xE9E60, symSize: 0x10 }
  - { offsetInCU: 0x1D7A2, offset: 0x121751, size: 0x8, addend: 0x0, symName: '__ZN70_$LT$core..panic..location..Location$u20$as$u20$core..fmt..Display$GT$3fmt17h335e8dcf25fc324aE', symObjAddr: 0x7F88, symBinAddr: 0xE9E70, symSize: 0x64 }
  - { offsetInCU: 0x1D7FE, offset: 0x1217AD, size: 0x8, addend: 0x0, symName: '__ZN73_$LT$core..panic..panic_info..PanicInfo$u20$as$u20$core..fmt..Display$GT$3fmt17h8c0f4bdae2b6aaceE', symObjAddr: 0x7FEC, symBinAddr: 0xE9ED4, symSize: 0x198 }
  - { offsetInCU: 0x1D9D8, offset: 0x121987, size: 0x8, addend: 0x0, symName: __ZN4core9panicking9panic_fmt17h23718744a5708125E, symObjAddr: 0x8184, symBinAddr: 0x104E88, symSize: 0x2C }
  - { offsetInCU: 0x1DA1C, offset: 0x1219CB, size: 0x8, addend: 0x0, symName: __ZN4core9panicking18panic_nounwind_fmt17hd75c83712ad3fbc6E, symObjAddr: 0x81B0, symBinAddr: 0x104EB4, symSize: 0x4C }
  - { offsetInCU: 0x1DA62, offset: 0x121A11, size: 0x8, addend: 0x0, symName: __ZN4core9panicking5panic17h6deb46bdfa67169dE, symObjAddr: 0x81FC, symBinAddr: 0x104F00, symSize: 0x34 }
  - { offsetInCU: 0x1DA92, offset: 0x121A41, size: 0x8, addend: 0x0, symName: __ZN4core9panicking14panic_nounwind17hda3e0481d95cafdfE, symObjAddr: 0x8230, symBinAddr: 0x104F34, symSize: 0x3C }
  - { offsetInCU: 0x1DAC2, offset: 0x121A71, size: 0x8, addend: 0x0, symName: __ZN4core9panicking26panic_nounwind_nobacktrace17h8b2e1e2a5006b670E, symObjAddr: 0x826C, symBinAddr: 0x104F70, symSize: 0x3C }
  - { offsetInCU: 0x1DAF2, offset: 0x121AA1, size: 0x8, addend: 0x0, symName: __ZN4core9panicking14panic_explicit17h547246c95f364628E, symObjAddr: 0x82A8, symBinAddr: 0x104FAC, symSize: 0x18 }
  - { offsetInCU: 0x1DB0C, offset: 0x121ABB, size: 0x8, addend: 0x0, symName: __ZN4core9panicking13panic_display17h37c62be6fd73e115E, symObjAddr: 0x82C0, symBinAddr: 0xEA06C, symSize: 0x3C }
  - { offsetInCU: 0x1DB3E, offset: 0x121AED, size: 0x8, addend: 0x0, symName: __ZN4core9panicking18panic_bounds_check17hf07789ff27627410E, symObjAddr: 0x82FC, symBinAddr: 0x104FC4, symSize: 0x50 }
  - { offsetInCU: 0x1DB6F, offset: 0x121B1E, size: 0x8, addend: 0x0, symName: __ZN4core9panicking36panic_misaligned_pointer_dereference17hb31099b13447e98bE, symObjAddr: 0x834C, symBinAddr: 0x105014, symSize: 0x8C }
  - { offsetInCU: 0x1DBA1, offset: 0x121B50, size: 0x8, addend: 0x0, symName: __ZN4core9panicking19panic_cannot_unwind17h6397583c742beeacE, symObjAddr: 0x83D8, symBinAddr: 0x1050A0, symSize: 0x18 }
  - { offsetInCU: 0x1DBBC, offset: 0x121B6B, size: 0x8, addend: 0x0, symName: __ZN4core9panicking16panic_in_cleanup17h9c3526a3e0bc271cE, symObjAddr: 0x83F0, symBinAddr: 0x1050B8, symSize: 0x18 }
  - { offsetInCU: 0x1DBD7, offset: 0x121B86, size: 0x8, addend: 0x0, symName: __ZN4core9panicking15const_panic_fmt17he7e93e32dc9e2963E, symObjAddr: 0x8408, symBinAddr: 0xEA0A8, symSize: 0x38 }
  - { offsetInCU: 0x1DBF6, offset: 0x121BA5, size: 0x8, addend: 0x0, symName: __ZN4core9panicking15const_panic_fmt17he7e93e32dc9e2963E, symObjAddr: 0x8408, symBinAddr: 0xEA0A8, symSize: 0x38 }
  - { offsetInCU: 0x1DC09, offset: 0x121BB8, size: 0x8, addend: 0x0, symName: __ZN4core9panicking13assert_failed17h4c30b6a84c7cdd7eE, symObjAddr: 0x8440, symBinAddr: 0x1050D0, symSize: 0x38 }
  - { offsetInCU: 0x1DC25, offset: 0x121BD4, size: 0x8, addend: 0x0, symName: __ZN4core9panicking13assert_failed17h981b4751f7e73b77E, symObjAddr: 0x8478, symBinAddr: 0x105108, symSize: 0x38 }
  - { offsetInCU: 0x1DC4D, offset: 0x121BFC, size: 0x8, addend: 0x0, symName: '__ZN84_$LT$core..panicking..assert_matches_failed..Pattern$u20$as$u20$core..fmt..Debug$GT$3fmt17hef9ceb723fe28b6dE', symObjAddr: 0x84B0, symBinAddr: 0xEA0E0, symSize: 0x20 }
  - { offsetInCU: 0x1DC81, offset: 0x121C30, size: 0x8, addend: 0x0, symName: __ZN4core9panicking19assert_failed_inner17hc9094fff6fe61ed9E, symObjAddr: 0x84D0, symBinAddr: 0x105140, symSize: 0x118 }
  - { offsetInCU: 0x1DCE2, offset: 0x121C91, size: 0x8, addend: 0x0, symName: __ZN4core9panicking11panic_const24panic_const_add_overflow17he09020e76af83fc2E, symObjAddr: 0x17F08, symBinAddr: 0x1053E0, symSize: 0x34 }
  - { offsetInCU: 0x1DD12, offset: 0x121CC1, size: 0x8, addend: 0x0, symName: __ZN4core9panicking11panic_const24panic_const_sub_overflow17hf7025e340ffa55e2E, symObjAddr: 0x17F3C, symBinAddr: 0x105414, symSize: 0x34 }
  - { offsetInCU: 0x1DD42, offset: 0x121CF1, size: 0x8, addend: 0x0, symName: __ZN4core9panicking11panic_const24panic_const_mul_overflow17hbe1b7ef99df0ff1cE, symObjAddr: 0x17F70, symBinAddr: 0x105448, symSize: 0x34 }
  - { offsetInCU: 0x1DD72, offset: 0x121D21, size: 0x8, addend: 0x0, symName: __ZN4core9panicking11panic_const24panic_const_div_overflow17he1e85cd1832e478fE, symObjAddr: 0x17FA4, symBinAddr: 0x10547C, symSize: 0x34 }
  - { offsetInCU: 0x1DDA2, offset: 0x121D51, size: 0x8, addend: 0x0, symName: __ZN4core9panicking11panic_const24panic_const_rem_overflow17ha13ab3559e17fd1dE, symObjAddr: 0x17FD8, symBinAddr: 0x1054B0, symSize: 0x34 }
  - { offsetInCU: 0x1DDD2, offset: 0x121D81, size: 0x8, addend: 0x0, symName: __ZN4core9panicking11panic_const24panic_const_neg_overflow17hf34c74945d36f534E, symObjAddr: 0x1800C, symBinAddr: 0x1054E4, symSize: 0x34 }
  - { offsetInCU: 0x1DE02, offset: 0x121DB1, size: 0x8, addend: 0x0, symName: __ZN4core9panicking11panic_const24panic_const_shr_overflow17hf5dcff4947e75a25E, symObjAddr: 0x18040, symBinAddr: 0x105518, symSize: 0x34 }
  - { offsetInCU: 0x1DE32, offset: 0x121DE1, size: 0x8, addend: 0x0, symName: __ZN4core9panicking11panic_const24panic_const_shl_overflow17h221f2662327d9b5bE, symObjAddr: 0x18074, symBinAddr: 0x10554C, symSize: 0x34 }
  - { offsetInCU: 0x1DE62, offset: 0x121E11, size: 0x8, addend: 0x0, symName: __ZN4core9panicking11panic_const23panic_const_div_by_zero17ha717c7366044aebdE, symObjAddr: 0x180A8, symBinAddr: 0x105580, symSize: 0x34 }
  - { offsetInCU: 0x1DE92, offset: 0x121E41, size: 0x8, addend: 0x0, symName: __ZN4core9panicking11panic_const23panic_const_rem_by_zero17h8060703a2812b9b2E, symObjAddr: 0x180DC, symBinAddr: 0x1055B4, symSize: 0x34 }
  - { offsetInCU: 0x1DEC2, offset: 0x121E71, size: 0x8, addend: 0x0, symName: __ZN4core9panicking11panic_const29panic_const_coroutine_resumed17hb8a023e62910616fE, symObjAddr: 0x18110, symBinAddr: 0x1055E8, symSize: 0x34 }
  - { offsetInCU: 0x1DEF2, offset: 0x121EA1, size: 0x8, addend: 0x0, symName: __ZN4core9panicking11panic_const28panic_const_async_fn_resumed17ha08ff80bda6a18bbE, symObjAddr: 0x18144, symBinAddr: 0x10561C, symSize: 0x34 }
  - { offsetInCU: 0x1DF22, offset: 0x121ED1, size: 0x8, addend: 0x0, symName: __ZN4core9panicking11panic_const32panic_const_async_gen_fn_resumed17hff2f5d38d28666ebE, symObjAddr: 0x18178, symBinAddr: 0x105650, symSize: 0x34 }
  - { offsetInCU: 0x1DF52, offset: 0x121F01, size: 0x8, addend: 0x0, symName: __ZN4core9panicking11panic_const23panic_const_gen_fn_none17h78748263200705f0E, symObjAddr: 0x181AC, symBinAddr: 0x105684, symSize: 0x34 }
  - { offsetInCU: 0x1DF82, offset: 0x121F31, size: 0x8, addend: 0x0, symName: __ZN4core9panicking11panic_const35panic_const_coroutine_resumed_panic17h385e35a69f0542fdE, symObjAddr: 0x181E0, symBinAddr: 0x1056B8, symSize: 0x34 }
  - { offsetInCU: 0x1DFB2, offset: 0x121F61, size: 0x8, addend: 0x0, symName: __ZN4core9panicking11panic_const34panic_const_async_fn_resumed_panic17hecaeb9d5c6989582E, symObjAddr: 0x18214, symBinAddr: 0x1056EC, symSize: 0x34 }
  - { offsetInCU: 0x1DFE2, offset: 0x121F91, size: 0x8, addend: 0x0, symName: __ZN4core9panicking11panic_const38panic_const_async_gen_fn_resumed_panic17h5a0f75f1ebc247c8E, symObjAddr: 0x18248, symBinAddr: 0x105720, symSize: 0x34 }
  - { offsetInCU: 0x1E012, offset: 0x121FC1, size: 0x8, addend: 0x0, symName: __ZN4core9panicking11panic_const29panic_const_gen_fn_none_panic17h2598c402272d6739E, symObjAddr: 0x1827C, symBinAddr: 0x105754, symSize: 0x34 }
  - { offsetInCU: 0x1E079, offset: 0x122028, size: 0x8, addend: 0x0, symName: '__ZN67_$LT$core..sync..atomic..AtomicBool$u20$as$u20$core..fmt..Debug$GT$3fmt17hdc164ba791c3cb6bE', symObjAddr: 0x8644, symBinAddr: 0xEA100, symSize: 0x44 }
  - { offsetInCU: 0x1E146, offset: 0x1220F5, size: 0x8, addend: 0x0, symName: '__ZN65_$LT$core..sync..atomic..AtomicI8$u20$as$u20$core..fmt..Debug$GT$3fmt17h271bbdae221fdd07E', symObjAddr: 0x182B0, symBinAddr: 0xF9898, symSize: 0x188 }
  - { offsetInCU: 0x1E34A, offset: 0x1222F9, size: 0x8, addend: 0x0, symName: '__ZN65_$LT$core..sync..atomic..AtomicU8$u20$as$u20$core..fmt..Debug$GT$3fmt17h6ea9d75d463144f5E', symObjAddr: 0x18438, symBinAddr: 0xF9A20, symSize: 0x17C }
  - { offsetInCU: 0x1E55C, offset: 0x12250B, size: 0x8, addend: 0x0, symName: '__ZN66_$LT$core..sync..atomic..AtomicI16$u20$as$u20$core..fmt..Debug$GT$3fmt17h26fd2480c5f4f99bE', symObjAddr: 0x185B4, symBinAddr: 0xF9B9C, symSize: 0x20C }
  - { offsetInCU: 0x1E771, offset: 0x122720, size: 0x8, addend: 0x0, symName: '__ZN66_$LT$core..sync..atomic..AtomicU16$u20$as$u20$core..fmt..Debug$GT$3fmt17h4f3ed6eed0748c59E', symObjAddr: 0x187C0, symBinAddr: 0xF9DA8, symSize: 0x1E4 }
  - { offsetInCU: 0x1E986, offset: 0x122935, size: 0x8, addend: 0x0, symName: '__ZN66_$LT$core..sync..atomic..AtomicI32$u20$as$u20$core..fmt..Debug$GT$3fmt17he65f5d0d0592b83dE', symObjAddr: 0x189A4, symBinAddr: 0xF9F8C, symSize: 0x218 }
  - { offsetInCU: 0x1EB86, offset: 0x122B35, size: 0x8, addend: 0x0, symName: '__ZN66_$LT$core..sync..atomic..AtomicU32$u20$as$u20$core..fmt..Debug$GT$3fmt17hd718ff676da91840E', symObjAddr: 0x18BBC, symBinAddr: 0xFA1A4, symSize: 0x28 }
  - { offsetInCU: 0x1EBF9, offset: 0x122BA8, size: 0x8, addend: 0x0, symName: '__ZN66_$LT$core..sync..atomic..AtomicI64$u20$as$u20$core..fmt..Debug$GT$3fmt17h8c54ef6ff84dd980E', symObjAddr: 0x18BE4, symBinAddr: 0xFA1CC, symSize: 0x0 }
  - { offsetInCU: 0x1EDF9, offset: 0x122DA8, size: 0x8, addend: 0x0, symName: '__ZN66_$LT$core..sync..atomic..AtomicU64$u20$as$u20$core..fmt..Debug$GT$3fmt17hb54db82ef28ed177E', symObjAddr: 0x18DF8, symBinAddr: 0xFA3E0, symSize: 0x14 }
  - { offsetInCU: 0x1EE6C, offset: 0x122E1B, size: 0x8, addend: 0x0, symName: '__ZN67_$LT$core..sync..atomic..AtomicI128$u20$as$u20$core..fmt..Debug$GT$3fmt17h1e5cfa6a501e97adE', symObjAddr: 0x18E0C, symBinAddr: 0xFA3F4, symSize: 0x140 }
  - { offsetInCU: 0x1F080, offset: 0x12302F, size: 0x8, addend: 0x0, symName: '__ZN67_$LT$core..sync..atomic..AtomicU128$u20$as$u20$core..fmt..Debug$GT$3fmt17h3ac5fa5aea0a3dbcE', symObjAddr: 0x18F4C, symBinAddr: 0xFA534, symSize: 0x12C }
  - { offsetInCU: 0x1F294, offset: 0x123243, size: 0x8, addend: 0x0, symName: '__ZN68_$LT$core..sync..atomic..AtomicUsize$u20$as$u20$core..fmt..Debug$GT$3fmt17hfab66a790d4657cbE', symObjAddr: 0x19078, symBinAddr: 0xFA660, symSize: 0x28 }
  - { offsetInCU: 0x1F38C, offset: 0x12333B, size: 0x8, addend: 0x0, symName: __ZN4core3str7pattern11StrSearcher3new17h119be990e3dc643fE, symObjAddr: 0xF694, symBinAddr: 0xF103C, symSize: 0x904 }
  - { offsetInCU: 0x1F644, offset: 0x1235F3, size: 0x8, addend: 0x0, symName: '__ZN59_$LT$core..str..iter..Chars$u20$as$u20$core..fmt..Debug$GT$3fmt17hc6102a7e5a608677E', symObjAddr: 0xF488, symBinAddr: 0xF0E64, symSize: 0x16C }
  - { offsetInCU: 0x1F811, offset: 0x1237C0, size: 0x8, addend: 0x0, symName: '__ZN65_$LT$core..str..iter..EncodeUtf16$u20$as$u20$core..fmt..Debug$GT$3fmt17h16762b0c6e6bdd06E', symObjAddr: 0xF5F4, symBinAddr: 0xF0FD0, symSize: 0x6C }
  - { offsetInCU: 0x1F8FF, offset: 0x1238AE, size: 0x8, addend: 0x0, symName: '__ZN67_$LT$core..str..iter..EscapeDebug$u20$as$u20$core..fmt..Display$GT$3fmt17h246bf72bb12a1c9fE', symObjAddr: 0x1C100, symBinAddr: 0xFD6E8, symSize: 0xA28 }
  - { offsetInCU: 0x20491, offset: 0x124440, size: 0x8, addend: 0x0, symName: '__ZN69_$LT$core..str..iter..EscapeDefault$u20$as$u20$core..fmt..Display$GT$3fmt17hc39f57319cadf885E', symObjAddr: 0x1CB28, symBinAddr: 0xFE110, symSize: 0x454 }
  - { offsetInCU: 0x20C6C, offset: 0x124C1B, size: 0x8, addend: 0x0, symName: '__ZN69_$LT$core..str..iter..EscapeUnicode$u20$as$u20$core..fmt..Display$GT$3fmt17h006b9ac66b2f474dE', symObjAddr: 0x1CF7C, symBinAddr: 0xFE564, symSize: 0x368 }
  - { offsetInCU: 0x213F8, offset: 0x1253A7, size: 0x8, addend: 0x0, symName: '__ZN4core3str21_$LT$impl$u20$str$GT$22split_at_mut_unchecked17h904fc076525585f8E', symObjAddr: 0x10A8C, symBinAddr: 0xF2428, symSize: 0x20 }
  - { offsetInCU: 0x2144D, offset: 0x1253FC, size: 0x8, addend: 0x0, symName: '__ZN4core3str21_$LT$impl$u20$str$GT$12escape_debug17h79975c72e73ed783E', symObjAddr: 0x10AAC, symBinAddr: 0xF2448, symSize: 0x108 }
  - { offsetInCU: 0x21618, offset: 0x1255C7, size: 0x8, addend: 0x0, symName: __ZN4core3str5count14do_count_chars17hecabfc7f0df6923aE, symObjAddr: 0xEBC0, symBinAddr: 0xF059C, symSize: 0x570 }
  - { offsetInCU: 0x21976, offset: 0x125925, size: 0x8, addend: 0x0, symName: __ZN4core3str5count23char_count_general_case17hc8ff85f3a6dc6ecdE, symObjAddr: 0xF130, symBinAddr: 0xF0B0C, symSize: 0x2B0 }
  - { offsetInCU: 0x21B92, offset: 0x125B41, size: 0x8, addend: 0x0, symName: __ZN4core3str6traits23str_index_overflow_fail17h81d02240499bdd64E, symObjAddr: 0xF660, symBinAddr: 0x105394, symSize: 0x34 }
  - { offsetInCU: 0x21BC9, offset: 0x125B78, size: 0x8, addend: 0x0, symName: __ZN4core3str8converts9from_utf817he3b04dd26af0a31cE, symObjAddr: 0xE728, symBinAddr: 0xF0104, symSize: 0x24C }
  - { offsetInCU: 0x21C39, offset: 0x125BE8, size: 0x8, addend: 0x0, symName: __ZN4core3str8converts13from_utf8_mut17hfff05075d9330d16E, symObjAddr: 0xE974, symBinAddr: 0xF0350, symSize: 0x24C }
  - { offsetInCU: 0x21CC3, offset: 0x125C72, size: 0x8, addend: 0x0, symName: '__ZN66_$LT$core..str..error..Utf8Error$u20$as$u20$core..fmt..Display$GT$3fmt17hc21ed88a616a6a0eE', symObjAddr: 0xF3E0, symBinAddr: 0xF0DBC, symSize: 0x88 }
  - { offsetInCU: 0x21D3D, offset: 0x125CEC, size: 0x8, addend: 0x0, symName: '__ZN71_$LT$core..str..error..ParseBoolError$u20$as$u20$core..fmt..Display$GT$3fmt17h64b6152873416fd1E', symObjAddr: 0xF468, symBinAddr: 0xF0E44, symSize: 0x20 }
  - { offsetInCU: 0x21D7B, offset: 0x125D2A, size: 0x8, addend: 0x0, symName: '__ZN60_$LT$core..str..lossy..Debug$u20$as$u20$core..fmt..Debug$GT$3fmt17h136df696c157d54fE', symObjAddr: 0xFF98, symBinAddr: 0xF1940, symSize: 0x460 }
  - { offsetInCU: 0x22220, offset: 0x1261CF, size: 0x8, addend: 0x0, symName: '__ZN87_$LT$core..str..lossy..Utf8Chunks$u20$as$u20$core..iter..traits..iterator..Iterator$GT$4next17he366ef3ca216dc5dE', symObjAddr: 0x103F8, symBinAddr: 0xF1DA0, symSize: 0x1F4 }
  - { offsetInCU: 0x224CF, offset: 0x12647E, size: 0x8, addend: 0x0, symName: '__ZN65_$LT$core..str..lossy..Utf8Chunks$u20$as$u20$core..fmt..Debug$GT$3fmt17hfd3437488e11fefcE', symObjAddr: 0x105EC, symBinAddr: 0xF1F94, symSize: 0xD4 }
  - { offsetInCU: 0x225D5, offset: 0x126584, size: 0x8, addend: 0x0, symName: __ZN4core3str16slice_error_fail17h44901f1df1cfab75E, symObjAddr: 0x106C0, symBinAddr: 0x1053C8, symSize: 0xC }
  - { offsetInCU: 0x225EF, offset: 0x12659E, size: 0x8, addend: 0x0, symName: __ZN4core3str19slice_error_fail_ct17hc43cd3e31bb00826E, symObjAddr: 0x106CC, symBinAddr: 0xF2068, symSize: 0x34 }
  - { offsetInCU: 0x2261F, offset: 0x1265CE, size: 0x8, addend: 0x0, symName: __ZN4core3str19slice_error_fail_rt17h355bf72eb3ee84d7E, symObjAddr: 0x10700, symBinAddr: 0xF209C, symSize: 0x38C }
  - { offsetInCU: 0x22989, offset: 0x126938, size: 0x8, addend: 0x0, symName: '__ZN57_$LT$core..time..Duration$u20$as$u20$core..fmt..Debug$GT$3fmt17hf001effb251d0153E', symObjAddr: 0x10BB4, symBinAddr: 0xF2550, symSize: 0xF0 }
  - { offsetInCU: 0x229C1, offset: 0x126970, size: 0x8, addend: 0x0, symName: '__ZN57_$LT$core..time..Duration$u20$as$u20$core..fmt..Debug$GT$3fmt11fmt_decimal17h089aac46a8d02a51E', symObjAddr: 0x10CA4, symBinAddr: 0xF2640, symSize: 0x6D8 }
  - { offsetInCU: 0x22C7E, offset: 0x126C2D, size: 0x8, addend: 0x0, symName: '__ZN57_$LT$core..time..Duration$u20$as$u20$core..fmt..Debug$GT$3fmt11fmt_decimal28_$u7b$$u7b$closure$u7d$$u7d$17hb1cf70be014ec7edE', symObjAddr: 0x1137C, symBinAddr: 0xF2D18, symSize: 0x1E0 }
  - { offsetInCU: 0x22E08, offset: 0x126DB7, size: 0x8, addend: 0x0, symName: '__ZN72_$LT$core..time..TryFromFloatSecsError$u20$as$u20$core..fmt..Display$GT$3fmt17h6a6a0bb11a99599cE', symObjAddr: 0x1155C, symBinAddr: 0xF2EF8, symSize: 0x44 }
  - { offsetInCU: 0x22E7A, offset: 0x126E29, size: 0x8, addend: 0x0, symName: '__ZN62_$LT$core..task..wake..Context$u20$as$u20$core..fmt..Debug$GT$3fmt17h38301371cedbd462E', symObjAddr: 0x11878, symBinAddr: 0xF3214, symSize: 0xCC }
  - { offsetInCU: 0x22F6F, offset: 0x126F1E, size: 0x8, addend: 0x0, symName: '__ZN60_$LT$core..task..wake..Waker$u20$as$u20$core..fmt..Debug$GT$3fmt17h5426a7531b551b16E', symObjAddr: 0x11944, symBinAddr: 0xF32E0, symSize: 0xF4 }
  - { offsetInCU: 0x23064, offset: 0x127013, size: 0x8, addend: 0x0, symName: '__ZN65_$LT$core..task..wake..LocalWaker$u20$as$u20$core..fmt..Debug$GT$3fmt17h0f6183afa9d4d174E', symObjAddr: 0x11A38, symBinAddr: 0xF33D4, symSize: 0xF4 }
  - { offsetInCU: 0x23167, offset: 0x127116, size: 0x8, addend: 0x0, symName: '__ZN71_$LT$core..alloc..layout..LayoutError$u20$as$u20$core..fmt..Display$GT$3fmt17h0c5dc2a3e24f948fE', symObjAddr: 0x11B2C, symBinAddr: 0xF34C8, symSize: 0x24 }
  - { offsetInCU: 0x231A1, offset: 0x127150, size: 0x8, addend: 0x0, symName: '__ZN62_$LT$core..alloc..AllocError$u20$as$u20$core..fmt..Display$GT$3fmt17hac1d047846b51c72E', symObjAddr: 0x11B50, symBinAddr: 0xF34EC, symSize: 0x24 }
  - { offsetInCU: 0x1E, offset: 0x1271A1, size: 0x8, addend: 0x0, symName: __ZN17compiler_builtins3int19specialized_div_rem12u128_div_rem17h80e45ffa5adb293fE, symObjAddr: 0x0, symBinAddr: 0xFF25C, symSize: 0x2F0 }
  - { offsetInCU: 0xCD, offset: 0x127250, size: 0x8, addend: 0x0, symName: __ZN17compiler_builtins3int19specialized_div_rem12u128_div_rem17h80e45ffa5adb293fE, symObjAddr: 0x0, symBinAddr: 0xFF25C, symSize: 0x2F0 }
  - { offsetInCU: 0x1E, offset: 0x1274D8, size: 0x8, addend: 0x0, symName: ___udivti3, symObjAddr: 0x0, symBinAddr: 0xFF54C, symSize: 0x18 }
  - { offsetInCU: 0x44, offset: 0x1274FE, size: 0x8, addend: 0x0, symName: ___udivti3, symObjAddr: 0x0, symBinAddr: 0xFF54C, symSize: 0x18 }
  - { offsetInCU: 0x1E, offset: 0x127589, size: 0x8, addend: 0x0, symName: ___muloti4, symObjAddr: 0x0, symBinAddr: 0xFF564, symSize: 0x114 }
  - { offsetInCU: 0x44, offset: 0x1275AF, size: 0x8, addend: 0x0, symName: ___muloti4, symObjAddr: 0x0, symBinAddr: 0xFF564, symSize: 0x114 }
...
